(lp1
F10.66
aF12.039999999999999
aF19.719999999999999
aF25.440000000000001
aF41.420000000000002
aF52.259999999999998
aF58.280000000000001
aF62.420000000000002
aF62.939999999999998
aF64.159999999999997
aF65.540000000000006
aF66.939999999999998
aF67.680000000000007
aF67.760000000000005
aF67.799999999999997
aF67.900000000000006
aF69.180000000000007
aF69.060000000000002
aF70.260000000000005
aF70.659999999999997
aF70.900000000000006
aF71.060000000000002
aF71.620000000000005
aF72.400000000000006
aF73.280000000000001
aF73.879999999999995
aF74.079999999999998
aF75
aF75
aF75.219999999999999
aF75.239999999999995
aF76.560000000000002
aF76.540000000000006
aF76.140000000000001
aF76.180000000000007
aF76.480000000000004
aF77
aF77.040000000000006
aF77.280000000000001
aF78
aF77.359999999999999
aF78.239999999999995
aF78.319999999999993
aF78.439999999999998
aF78.439999999999998
aF78.980000000000004
aF79.340000000000003
aF79.420000000000002
aF79.760000000000005
aF80.159999999999997
aF80.180000000000007
aF80.260000000000005
aF80.459999999999994
aF80.480000000000004
aF80.900000000000006
aF81.180000000000007
aF81.599999999999994
aF82.099999999999994
aF82.200000000000003
aF82.140000000000001
aF82.620000000000005
aF82.760000000000005
aF83.040000000000006
aF82.739999999999995
aF82.859999999999999
aF82.879999999999995
aF83.019999999999996
aF82.700000000000003
aF82.959999999999994
aF83.019999999999996
aF83.019999999999996
aF83.040000000000006
aF82.959999999999994
aF83.319999999999993
aF83.459999999999994
aF83.739999999999995
aF83.739999999999995
aF83.819999999999993
aF84.920000000000002
aF85.019999999999996
aF84.879999999999995
aF85.159999999999997
aF85.159999999999997
aF85.200000000000003
aF85.239999999999995
aF85.120000000000005
aF85.280000000000001
aF85.159999999999997
aF84.939999999999998
aF84.939999999999998
aF84.959999999999994
aF84.939999999999998
aF85.060000000000002
aF85.060000000000002
aF85.140000000000001
aF85.159999999999997
aF85.120000000000005
aF85.060000000000002
aF84.900000000000006
aF85.060000000000002
aF85.260000000000005
aF85.280000000000001
aF85.400000000000006
aF85.579999999999998
aF85.5
aF85.340000000000003
aF85.400000000000006
aF85.359999999999999
aF85.359999999999999
aF85.280000000000001
aF85.359999999999999
aF85.480000000000004
aF85.439999999999998
aF85.400000000000006
aF85.420000000000002
aF85.480000000000004
aF85.439999999999998
aF85.680000000000007
aF85.799999999999997
aF85.599999999999994
aF85.900000000000006
aF85.879999999999995
aF85.879999999999995
aF85.879999999999995
aF85.859999999999999
aF85.920000000000002
aF86.180000000000007
aF86.180000000000007
aF86.260000000000005
aF86.200000000000003
aF86.280000000000001
aF86.219999999999999
aF86.319999999999993
aF86.260000000000005
aF86.319999999999993
aF86.219999999999999
aF86.299999999999997
aF86.439999999999998
aF86.5
aF86.640000000000001
aF86.760000000000005
aF86.739999999999995
aF86.900000000000006
aF86.879999999999995
aF86.879999999999995
aF87.319999999999993
aF87.280000000000001
aF87.180000000000007
aF87.040000000000006
aF86.640000000000001
aF86.680000000000007
aF86.620000000000005
aF87.260000000000005
aF87.560000000000002
aF87.540000000000006
aF87.299999999999997
aF87.379999999999995
aF87.239999999999995
aF87.379999999999995
aF87.180000000000007
aF87.519999999999996
aF87.5
aF87.540000000000006
aF87.459999999999994
aF87.420000000000002
aF87.379999999999995
aF86.819999999999993
aF87.299999999999997
aF87.359999999999999
aF87.400000000000006
aF87.439999999999998
aF87.400000000000006
aF87.459999999999994
aF87.459999999999994
aF87.459999999999994
aF87.540000000000006
aF87.219999999999999
aF87.219999999999999
aF87.5
aF87.480000000000004
aF87.420000000000002
aF87.480000000000004
aF86.939999999999998
aF87.060000000000002
aF87.120000000000005
aF87.359999999999999
aF87.439999999999998
aF87.5
aF87.060000000000002
aF86.780000000000001
aF87.099999999999994
aF87.079999999999998
aF87.219999999999999
aF87.319999999999993
aF87.239999999999995
aF87.219999999999999
aF87.280000000000001
aF87.319999999999993
aF87.519999999999996
aF87.519999999999996
aF87.5
aF87.519999999999996
aF87.5
aF87.519999999999996
aF87.540000000000006
aF87.560000000000002
aF87.540000000000006
aF87.620000000000005
aF87.579999999999998
aF87.640000000000001
aF87.840000000000003
aF87.780000000000001
aF87.760000000000005
aF86.780000000000001
aF87.299999999999997
aF87.480000000000004
aF87.840000000000003
aF87.799999999999997
aF87.859999999999999
aF87.859999999999999
aF87.920000000000002
aF87.840000000000003
aF87.900000000000006
aF87.900000000000006
aF87.719999999999999
aF87.700000000000003
aF87.799999999999997
aF87.739999999999995
aF87.859999999999999
aF87.780000000000001
aF87.879999999999995
aF87.780000000000001
aF87.799999999999997
aF87.799999999999997
aF87.859999999999999
aF87.939999999999998
aF87.879999999999995
aF87.900000000000006
aF87.900000000000006
aF87.980000000000004
aF87.980000000000004
aF87.920000000000002
aF87.939999999999998
aF87.920000000000002
aF88.120000000000005
aF88.219999999999999
aF88.120000000000005
aF88.219999999999999
aF88.140000000000001
aF87.900000000000006
aF88.079999999999998
aF87.939999999999998
aF88
aF88.120000000000005
aF88
aF87.959999999999994
aF87.959999999999994
aF87.900000000000006
aF87.980000000000004
aF87.959999999999994
aF87.760000000000005
aF87.739999999999995
aF87.859999999999999
aF87.739999999999995
aF87.280000000000001
aF87.640000000000001
aF87.680000000000007
aF87.900000000000006
aF87.760000000000005
aF87.939999999999998
aF88.079999999999998
aF88.260000000000005
aF87.739999999999995
aF88.140000000000001
aF88.200000000000003
aF88.159999999999997
aF88.159999999999997
aF88.180000000000007
aF88.159999999999997
aF88.200000000000003
aF88.239999999999995
aF88.159999999999997
aF88.099999999999994
aF88.140000000000001
aF88.120000000000005
aF88.140000000000001
aF88.140000000000001
aF88.099999999999994
aF88.120000000000005
aF88.019999999999996
aF87.719999999999999
aF87.579999999999998
aF88.180000000000007
aF88.200000000000003
aF88.159999999999997
aF88.180000000000007
aF88.219999999999999
aF88.239999999999995
aF88.319999999999993
aF88.099999999999994
aF88.480000000000004
aF88.439999999999998
aF88.420000000000002
aF88.280000000000001
aF88.239999999999995
aF88.299999999999997
aF88.280000000000001
aF88.319999999999993
aF88.280000000000001
aF88.260000000000005
aF88.280000000000001
aF88.280000000000001
aF88.319999999999993
aF88.239999999999995
aF88.280000000000001
aF88.359999999999999
aF88.280000000000001
aF88.280000000000001
aF88.359999999999999
aF88.319999999999993
aF88.319999999999993
aF88.219999999999999
aF88.299999999999997
aF88.439999999999998
aF88.180000000000007
aF86.620000000000005
aF87.079999999999998
aF87.640000000000001
aF87.780000000000001
aF87.920000000000002
aF87.859999999999999
aF87.840000000000003
aF87.879999999999995
aF87.879999999999995
aF87.819999999999993
aF87.840000000000003
aF87.859999999999999
aF87.939999999999998
aF88.060000000000002
aF87.859999999999999
aF88.140000000000001
aF88.439999999999998
aF88.439999999999998
aF88.400000000000006
aF88.280000000000001
aF88.099999999999994
aF88.099999999999994
aF88.239999999999995
aF88.219999999999999
aF88.180000000000007
aF88.219999999999999
aF88.219999999999999
aF88.459999999999994
aF88.579999999999998
aF88.420000000000002
aF88.480000000000004
aF88.620000000000005
aF88.640000000000001
aF88.680000000000007
aF88.640000000000001
aF88.5
aF88.540000000000006
aF88.519999999999996
aF88.519999999999996
aF88.420000000000002
aF88.359999999999999
aF88.620000000000005
aF87.620000000000005
aF87.780000000000001
aF88.099999999999994
aF88.340000000000003
aF88.200000000000003
aF88.540000000000006
aF88.540000000000006
aF88.519999999999996
aF88.5
aF88.459999999999994
aF88.400000000000006
aF88.400000000000006
aF88.400000000000006
aF88.379999999999995
aF88.439999999999998
aF88.5
aF88.5
aF88.5
aF88.519999999999996
aF88.519999999999996
aF88.480000000000004
aF88.439999999999998
aF88.540000000000006
aF88.560000000000002
aF88.560000000000002
aF88.579999999999998
aF88.959999999999994
aF88.920000000000002
aF88.920000000000002
aF89.019999999999996
aF88.980000000000004
aF88.980000000000004
aF88.920000000000002
aF88.859999999999999
aF88.760000000000005
aF88.819999999999993
aF88.340000000000003
aF88.439999999999998
aF88.359999999999999
aF88.579999999999998
aF88.599999999999994
aF88.439999999999998
aF88.420000000000002
aF88.420000000000002
aF88.459999999999994
aF88.5
aF88.439999999999998
aF88.439999999999998
aF88.359999999999999
aF88.439999999999998
aF88.420000000000002
aF88.420000000000002
aF88.540000000000006
aF88.540000000000006
aF88.700000000000003
aF88.700000000000003
aF88.719999999999999
aF88.980000000000004
aF89.180000000000007
aF89.219999999999999
aF89.200000000000003
aF89.180000000000007
aF89.200000000000003
aF89.219999999999999
aF89.159999999999997
aF89.340000000000003
aF89.379999999999995
aF89.319999999999993
aF89.400000000000006
aF89.439999999999998
aF89.439999999999998
aF89.420000000000002
aF89.420000000000002
aF89.400000000000006
aF89.299999999999997
aF89.340000000000003
aF89.319999999999993
aF89.5
aF89.659999999999997
aF89.680000000000007
aF89.700000000000003
aF89.719999999999999
aF89.719999999999999
aF89.859999999999999
aF89.840000000000003
aF89.819999999999993
aF89.760000000000005
aF89.780000000000001
aF89.799999999999997
aF89.819999999999993
aF89.819999999999993
aF89.819999999999993
aF89.840000000000003
aF89.799999999999997
aF89.799999999999997
aF89.840000000000003
aF89.859999999999999
aF89.819999999999993
aF89.819999999999993
aF89.819999999999993
aF89.840000000000003
aF89.840000000000003
aF89.900000000000006
aF89.900000000000006
aF89.840000000000003
aF89.859999999999999
aF89.920000000000002
aF90.019999999999996
aF90.040000000000006
aF90.120000000000005
aF90.099999999999994
aF89.959999999999994
aF89.939999999999998
aF89.959999999999994
aF89.920000000000002
aF89.959999999999994
aF89.879999999999995
aF89.959999999999994
aF89.980000000000004
aF90.060000000000002
aF90.200000000000003
aF90.200000000000003
aF90.200000000000003
aF90.200000000000003
aF90.200000000000003
aF90.180000000000007
aF90.200000000000003
aF90.180000000000007
aF90.180000000000007
aF90.200000000000003
aF90.200000000000003
aF90.180000000000007
aF90.200000000000003
a.