(lp1
F12.199999999999999
aF12.5
aF12.779999999999999
aF12.94
aF13
aF12.859999999999999
aF13.16
aF13.380000000000001
aF13.66
aF13.94
aF14.16
aF14.640000000000001
aF15
aF15.24
aF15.24
aF15.5
aF15.779999999999999
aF16.199999999999999
aF16.359999999999999
aF16.800000000000001
aF17.100000000000001
aF17.48
aF17.620000000000001
aF18.100000000000001
aF18.559999999999999
aF19.140000000000001
aF19.640000000000001
aF20.260000000000002
aF20.82
aF21.199999999999999
aF21.940000000000001
aF22.579999999999998
aF23.300000000000001
aF24.300000000000001
aF25.059999999999999
aF25.800000000000001
aF26.579999999999998
aF27.359999999999999
aF28.100000000000001
aF28.719999999999999
aF29.620000000000001
aF30.219999999999999
aF30.879999999999999
aF31.5
aF32.219999999999999
aF32.939999999999998
aF33.399999999999999
aF34.119999999999997
aF34.780000000000001
aF35.68
aF36.359999999999999
aF37.100000000000001
aF37.700000000000003
aF38.399999999999999
aF39.060000000000002
aF39.5
aF40
aF40.619999999999997
aF40.939999999999998
aF41.439999999999998
aF42
aF42.380000000000003
aF42.920000000000002
aF43.579999999999998
aF44.240000000000002
aF44.640000000000001
aF45.119999999999997
aF45.579999999999998
aF46.140000000000001
aF46.799999999999997
aF47.18
aF47.560000000000002
aF47.960000000000001
aF48.640000000000001
aF49
aF49.359999999999999
aF49.759999999999998
aF50.259999999999998
aF50.68
aF51.100000000000001
aF51.340000000000003
aF51.439999999999998
aF51.780000000000001
aF52.280000000000001
aF52.439999999999998
aF52.700000000000003
aF53.039999999999999
aF53.259999999999998
aF53.399999999999999
aF53.740000000000002
aF54.259999999999998
aF54.600000000000001
aF54.880000000000003
aF55.380000000000003
aF55.619999999999997
aF55.920000000000002
aF56.259999999999998
aF56.68
aF56.880000000000003
aF57.200000000000003
aF57.659999999999997
aF57.880000000000003
aF58.060000000000002
aF58.479999999999997
aF58.700000000000003
aF59.100000000000001
aF59.359999999999999
aF59.719999999999999
aF59.979999999999997
aF60.299999999999997
aF60.560000000000002
aF60.759999999999998
aF61.100000000000001
aF61.5
aF61.740000000000002
aF61.899999999999999
aF62.140000000000001
aF62.299999999999997
aF62.619999999999997
aF62.780000000000001
aF63.100000000000001
aF63.219999999999999
aF63.460000000000001
aF63.700000000000003
aF63.740000000000002
aF63.899999999999999
aF64.180000000000007
aF64.299999999999997
aF64.560000000000002
aF64.819999999999993
aF64.819999999999993
aF64.900000000000006
aF65.079999999999998
aF65.159999999999997
aF65.299999999999997
aF65.519999999999996
aF65.640000000000001
aF65.739999999999995
aF65.900000000000006
aF65.939999999999998
aF66.180000000000007
aF66.340000000000003
aF66.540000000000006
aF66.760000000000005
aF66.920000000000002
aF67.060000000000002
aF67.140000000000001
aF67.260000000000005
aF67.439999999999998
aF67.540000000000006
aF67.840000000000003
aF67.859999999999999
aF68.140000000000001
aF68.319999999999993
aF68.420000000000002
aF68.599999999999994
aF68.799999999999997
aF68.840000000000003
aF68.900000000000006
aF69
aF69.060000000000002
aF69.159999999999997
aF69.159999999999997
aF69.260000000000005
aF69.260000000000005
aF69.379999999999995
aF69.400000000000006
aF69.379999999999995
aF69.459999999999994
aF69.480000000000004
aF69.519999999999996
aF69.659999999999997
aF69.799999999999997
aF69.980000000000004
aF70
aF70.180000000000007
aF70.260000000000005
aF70.379999999999995
aF70.640000000000001
aF70.780000000000001
aF71.040000000000006
aF71.200000000000003
aF71.219999999999999
aF71.239999999999995
aF71.340000000000003
aF71.599999999999994
aF71.659999999999997
aF71.719999999999999
aF71.859999999999999
aF71.920000000000002
aF72.060000000000002
aF72.040000000000006
aF72.140000000000001
aF72.340000000000003
aF72.599999999999994
aF72.700000000000003
aF72.719999999999999
aF72.680000000000007
aF72.799999999999997
aF72.959999999999994
aF73.019999999999996
aF73.060000000000002
aF73.219999999999999
aF73.400000000000006
aF73.439999999999998
aF73.459999999999994
aF73.439999999999998
aF73.519999999999996
aF73.480000000000004
aF73.519999999999996
aF73.540000000000006
aF73.5
aF73.579999999999998
aF73.659999999999997
aF73.659999999999997
aF73.700000000000003
aF73.780000000000001
aF73.939999999999998
aF74.099999999999994
aF74.219999999999999
aF74.299999999999997
aF74.420000000000002
aF74.439999999999998
aF74.519999999999996
aF74.659999999999997
aF74.680000000000007
aF74.739999999999995
aF74.700000000000003
aF74.700000000000003
aF74.859999999999999
aF74.879999999999995
aF74.900000000000006
aF75.060000000000002
aF75.120000000000005
aF75.120000000000005
aF75.299999999999997
aF75.319999999999993
aF75.459999999999994
aF75.540000000000006
aF75.640000000000001
aF75.680000000000007
aF75.760000000000005
aF75.780000000000001
aF75.799999999999997
aF76
aF76.099999999999994
aF76.180000000000007
aF76.280000000000001
aF76.439999999999998
aF76.5
aF76.640000000000001
aF76.700000000000003
aF76.819999999999993
aF76.780000000000001
aF76.879999999999995
aF77
aF77.060000000000002
aF77.140000000000001
aF77.260000000000005
aF77.219999999999999
aF77.159999999999997
aF77.219999999999999
aF77.239999999999995
aF77.359999999999999
aF77.519999999999996
aF77.620000000000005
aF77.819999999999993
aF77.819999999999993
aF77.900000000000006
aF78.060000000000002
aF78.180000000000007
aF78.239999999999995
aF78.180000000000007
aF78.299999999999997
aF78.280000000000001
aF78.359999999999999
aF78.439999999999998
aF78.519999999999996
aF78.540000000000006
aF78.680000000000007
aF78.659999999999997
aF78.739999999999995
aF78.780000000000001
aF78.760000000000005
aF78.640000000000001
aF78.659999999999997
aF78.739999999999995
aF78.640000000000001
aF78.819999999999993
aF78.739999999999995
aF78.659999999999997
aF78.780000000000001
aF78.780000000000001
aF78.700000000000003
aF78.760000000000005
aF78.780000000000001
aF78.879999999999995
aF78.900000000000006
aF78.879999999999995
aF78.920000000000002
aF78.980000000000004
aF79.019999999999996
aF79.040000000000006
aF79.140000000000001
aF79.099999999999994
aF79.159999999999997
aF79.140000000000001
aF79.219999999999999
aF79.219999999999999
aF79.219999999999999
aF79.299999999999997
aF79.359999999999999
aF79.379999999999995
aF79.379999999999995
aF79.480000000000004
aF79.459999999999994
aF79.579999999999998
aF79.620000000000005
aF79.680000000000007
aF79.819999999999993
aF79.959999999999994
aF80.019999999999996
aF79.939999999999998
aF79.879999999999995
aF79.719999999999999
aF79.579999999999998
aF79.700000000000003
aF79.760000000000005
aF79.739999999999995
aF79.780000000000001
aF79.920000000000002
aF80.019999999999996
aF79.980000000000004
aF79.879999999999995
aF79.859999999999999
aF79.920000000000002
aF79.920000000000002
aF80
aF79.980000000000004
aF80.140000000000001
aF80.219999999999999
aF80.180000000000007
aF80.140000000000001
aF80.319999999999993
aF80.340000000000003
aF80.319999999999993
aF80.319999999999993
aF80.260000000000005
aF80.319999999999993
aF80.439999999999998
aF80.480000000000004
aF80.439999999999998
aF80.579999999999998
aF80.680000000000007
aF80.599999999999994
aF80.659999999999997
aF80.739999999999995
aF80.760000000000005
aF80.780000000000001
aF80.700000000000003
aF80.780000000000001
aF80.920000000000002
aF80.840000000000003
aF80.859999999999999
aF80.879999999999995
aF80.879999999999995
aF80.900000000000006
aF81.019999999999996
aF81.040000000000006
aF81.159999999999997
aF81.420000000000002
aF81.400000000000006
aF81.379999999999995
aF81.420000000000002
aF81.459999999999994
aF81.420000000000002
aF81.480000000000004
aF81.519999999999996
aF81.579999999999998
aF81.480000000000004
aF81.620000000000005
aF81.700000000000003
aF81.680000000000007
aF81.659999999999997
aF81.739999999999995
aF81.760000000000005
aF81.739999999999995
aF81.760000000000005
aF81.739999999999995
aF81.799999999999997
aF81.879999999999995
aF81.859999999999999
aF81.859999999999999
aF81.939999999999998
aF82
aF81.959999999999994
aF81.939999999999998
aF81.920000000000002
aF82
aF81.939999999999998
aF82.019999999999996
aF82.040000000000006
aF82.060000000000002
aF82.099999999999994
aF82.060000000000002
aF82.019999999999996
aF82.159999999999997
aF82.120000000000005
aF82.159999999999997
aF82.060000000000002
aF82.099999999999994
aF82.200000000000003
aF82.219999999999999
aF82.200000000000003
aF82.079999999999998
aF82.079999999999998
aF82.099999999999994
aF82.159999999999997
aF82.260000000000005
aF82.200000000000003
aF82.260000000000005
aF82.180000000000007
aF82.280000000000001
aF82.299999999999997
aF82.379999999999995
aF82.379999999999995
aF82.5
aF82.480000000000004
aF82.5
aF82.599999999999994
aF82.640000000000001
aF82.700000000000003
aF82.799999999999997
aF82.900000000000006
aF82.900000000000006
aF83.040000000000006
aF83.099999999999994
aF83.260000000000005
aF83.359999999999999
aF83.400000000000006
aF83.340000000000003
aF83.299999999999997
aF83.239999999999995
aF83.299999999999997
aF83.400000000000006
aF83.400000000000006
aF83.5
aF83.540000000000006
aF83.579999999999998
aF83.579999999999998
aF83.560000000000002
aF83.719999999999999
aF83.719999999999999
aF83.799999999999997
aF83.760000000000005
aF83.739999999999995
aF83.719999999999999
aF83.760000000000005
aF83.799999999999997
aF83.819999999999993
aF83.840000000000003
aF83.819999999999993
aF83.700000000000003
aF83.719999999999999
aF83.640000000000001
aF83.680000000000007
aF83.659999999999997
aF83.700000000000003
aF83.620000000000005
aF83.599999999999994
aF83.599999999999994
aF83.700000000000003
aF83.680000000000007
aF83.739999999999995
aF83.700000000000003
aF83.719999999999999
aF83.719999999999999
aF83.700000000000003
aF83.760000000000005
aF83.859999999999999
aF84.019999999999996
aF84.060000000000002
aF84.019999999999996
aF84.040000000000006
aF84.140000000000001
aF84.260000000000005
aF84.140000000000001
aF84.239999999999995
aF84.260000000000005
aF84.200000000000003
aF84.239999999999995
aF84.219999999999999
aF84.159999999999997
aF84.159999999999997
aF84.120000000000005
aF84.159999999999997
aF84.180000000000007
aF84.299999999999997
aF84.319999999999993
aF84.340000000000003
a.