(lp1
F12.880000000000001
aF12.800000000000001
aF12.98
aF12.94
aF12.859999999999999
aF12.98
aF13.039999999999999
aF13.279999999999999
aF13.4
aF13.619999999999999
aF13.98
aF14.5
aF15.220000000000001
aF15.56
aF15.76
aF16.280000000000001
aF16.780000000000001
aF17.260000000000002
aF17.539999999999999
aF17.940000000000001
aF18.5
aF18.98
aF19.48
aF20.059999999999999
aF20.719999999999999
aF21.260000000000002
aF21.48
aF22.120000000000001
aF23
aF23.399999999999999
aF24.100000000000001
aF24.620000000000001
aF25.300000000000001
aF26
aF26.620000000000001
aF27.100000000000001
aF27.620000000000001
aF28.48
aF29.039999999999999
aF30
aF30.48
aF31.199999999999999
aF31.780000000000001
aF32.479999999999997
aF33.119999999999997
aF33.640000000000001
aF34.240000000000002
aF34.880000000000003
aF35.399999999999999
aF35.920000000000002
aF36.280000000000001
aF36.780000000000001
aF37.219999999999999
aF37.740000000000002
aF38.119999999999997
aF38.700000000000003
aF39.299999999999997
aF39.939999999999998
aF40.399999999999999
aF40.759999999999998
aF41.259999999999998
aF41.68
aF42.219999999999999
aF42.799999999999997
aF43.219999999999999
aF43.659999999999997
aF44.079999999999998
aF44.399999999999999
aF44.780000000000001
aF45.259999999999998
aF45.719999999999999
aF46.060000000000002
aF46.32
aF46.700000000000003
aF47.399999999999999
aF47.759999999999998
aF48.240000000000002
aF48.859999999999999
aF49.539999999999999
aF49.960000000000001
aF50.380000000000003
aF50.979999999999997
aF51.32
aF51.759999999999998
aF52.299999999999997
aF52.700000000000003
aF53.060000000000002
aF53.579999999999998
aF53.960000000000001
aF54.340000000000003
aF54.979999999999997
aF55.479999999999997
aF55.740000000000002
aF56.020000000000003
aF56.420000000000002
aF56.799999999999997
aF57
aF57.240000000000002
aF57.479999999999997
aF57.520000000000003
aF57.780000000000001
aF57.979999999999997
aF58.240000000000002
aF58.340000000000003
aF58.560000000000002
aF58.479999999999997
aF58.640000000000001
aF58.859999999999999
aF58.899999999999999
aF59.18
aF59.259999999999998
aF59.600000000000001
aF59.799999999999997
aF59.939999999999998
aF60.240000000000002
aF60.399999999999999
aF60.600000000000001
aF60.659999999999997
aF60.960000000000001
aF61.100000000000001
aF61.380000000000003
aF61.719999999999999
aF61.880000000000003
aF62.079999999999998
aF62.460000000000001
aF62.799999999999997
aF62.899999999999999
aF63.119999999999997
aF63.280000000000001
aF63.619999999999997
aF63.799999999999997
aF63.960000000000001
aF64.019999999999996
aF64.299999999999997
aF64.459999999999994
aF64.599999999999994
aF64.700000000000003
aF64.719999999999999
aF64.780000000000001
aF64.959999999999994
aF64.939999999999998
aF64.980000000000004
aF65.140000000000001
aF65.200000000000003
aF65.219999999999999
aF65.560000000000002
aF65.719999999999999
aF65.819999999999993
aF65.900000000000006
aF66.260000000000005
aF66.280000000000001
aF66.280000000000001
aF66.239999999999995
aF66.239999999999995
aF66.340000000000003
aF66.379999999999995
aF66.519999999999996
aF66.760000000000005
aF66.959999999999994
aF67.180000000000007
aF67.260000000000005
aF67.420000000000002
aF67.560000000000002
aF67.819999999999993
aF67.980000000000004
aF68.099999999999994
aF68.200000000000003
aF68.319999999999993
aF68.439999999999998
aF68.519999999999996
aF68.640000000000001
aF68.719999999999999
aF68.780000000000001
aF68.980000000000004
aF69.099999999999994
aF69.280000000000001
aF69.299999999999997
aF69.340000000000003
aF69.519999999999996
aF69.540000000000006
aF69.640000000000001
aF69.680000000000007
aF69.799999999999997
aF69.900000000000006
aF69.939999999999998
aF70
aF70.159999999999997
aF70.060000000000002
aF70.120000000000005
aF70.099999999999994
aF70.260000000000005
aF70.420000000000002
aF70.459999999999994
aF70.439999999999998
aF70.420000000000002
aF70.680000000000007
aF70.680000000000007
aF70.540000000000006
aF70.640000000000001
aF70.680000000000007
aF70.739999999999995
aF70.780000000000001
aF70.760000000000005
aF70.980000000000004
aF71.140000000000001
aF71.299999999999997
aF71.379999999999995
aF71.540000000000006
aF71.579999999999998
aF71.739999999999995
aF71.859999999999999
aF71.920000000000002
aF72.140000000000001
aF72.079999999999998
aF71.980000000000004
aF72
aF72.019999999999996
aF72.019999999999996
aF71.939999999999998
aF71.840000000000003
aF72.099999999999994
aF72.200000000000003
aF72.280000000000001
aF72.420000000000002
aF72.5
aF72.540000000000006
aF72.560000000000002
aF72.640000000000001
aF72.700000000000003
aF72.840000000000003
aF72.840000000000003
aF72.920000000000002
aF73.099999999999994
aF73.159999999999997
aF73.200000000000003
aF73.099999999999994
aF73.159999999999997
aF73.299999999999997
aF73.359999999999999
aF73.400000000000006
aF73.359999999999999
aF73.5
aF73.579999999999998
aF73.640000000000001
aF73.760000000000005
aF73.799999999999997
aF73.939999999999998
aF74.060000000000002
aF74.200000000000003
aF74.260000000000005
aF74.340000000000003
aF74.459999999999994
aF74.560000000000002
aF74.599999999999994
aF74.700000000000003
aF74.700000000000003
aF74.739999999999995
aF74.920000000000002
aF75.040000000000006
aF75.280000000000001
aF75.579999999999998
aF75.560000000000002
aF75.840000000000003
aF75.980000000000004
aF75.920000000000002
aF75.920000000000002
aF75.939999999999998
aF76
aF75.980000000000004
aF75.980000000000004
aF75.980000000000004
aF76.260000000000005
aF76.299999999999997
aF76.319999999999993
aF76.280000000000001
aF76.260000000000005
aF76.299999999999997
aF76.379999999999995
aF76.340000000000003
aF76.319999999999993
aF76.299999999999997
aF76.359999999999999
aF76.439999999999998
aF76.5
aF76.540000000000006
aF76.659999999999997
aF76.780000000000001
aF76.859999999999999
aF76.959999999999994
aF77.099999999999994
aF77
aF77.040000000000006
aF76.959999999999994
aF77.040000000000006
aF77.040000000000006
aF77.060000000000002
aF77.079999999999998
aF77.099999999999994
aF77.079999999999998
aF77.040000000000006
aF77.079999999999998
aF77.019999999999996
aF77.140000000000001
aF77.140000000000001
aF77.140000000000001
aF77.180000000000007
aF77.280000000000001
aF77.439999999999998
aF77.5
aF77.560000000000002
aF77.719999999999999
aF77.739999999999995
aF77.739999999999995
aF77.859999999999999
aF77.959999999999994
aF78.040000000000006
aF78.140000000000001
aF78.099999999999994
aF78.159999999999997
aF78.140000000000001
aF78.180000000000007
aF78.239999999999995
aF78.379999999999995
aF78.420000000000002
aF78.459999999999994
aF78.599999999999994
aF78.480000000000004
aF78.620000000000005
aF78.719999999999999
aF78.760000000000005
aF78.659999999999997
aF78.599999999999994
aF78.680000000000007
aF78.659999999999997
aF78.799999999999997
aF78.900000000000006
aF78.900000000000006
aF78.939999999999998
aF79
aF79
aF79.060000000000002
aF79.060000000000002
aF79.120000000000005
aF79.180000000000007
aF79.140000000000001
aF79.200000000000003
aF79.280000000000001
aF79.239999999999995
aF79.120000000000005
aF79.120000000000005
aF79.079999999999998
aF79
aF79
aF79.060000000000002
aF79.079999999999998
aF79.140000000000001
aF79.099999999999994
aF79.120000000000005
aF79.200000000000003
aF79.260000000000005
aF79.219999999999999
aF79.439999999999998
aF79.379999999999995
aF79.239999999999995
aF79.219999999999999
aF79.280000000000001
aF79.340000000000003
aF79.400000000000006
aF79.379999999999995
aF79.519999999999996
aF79.579999999999998
aF79.579999999999998
aF79.700000000000003
aF79.799999999999997
aF79.799999999999997
aF79.799999999999997
aF79.780000000000001
aF79.859999999999999
aF79.900000000000006
aF80.019999999999996
aF79.939999999999998
aF79.959999999999994
aF80
aF79.980000000000004
aF79.980000000000004
aF80.040000000000006
aF80.299999999999997
aF80.340000000000003
aF80.359999999999999
aF80.459999999999994
aF80.560000000000002
aF80.599999999999994
aF80.640000000000001
aF80.640000000000001
aF80.640000000000001
aF80.640000000000001
aF80.700000000000003
aF80.760000000000005
aF80.819999999999993
aF80.780000000000001
aF80.799999999999997
aF80.840000000000003
aF80.719999999999999
aF80.700000000000003
aF80.780000000000001
aF80.819999999999993
aF80.799999999999997
aF80.680000000000007
aF80.780000000000001
aF80.739999999999995
aF80.900000000000006
aF80.859999999999999
aF80.879999999999995
aF80.799999999999997
aF80.819999999999993
aF80.840000000000003
aF80.760000000000005
aF80.739999999999995
aF80.719999999999999
aF80.739999999999995
aF80.780000000000001
aF80.900000000000006
aF81.060000000000002
aF81.180000000000007
aF81.299999999999997
aF81.379999999999995
aF81.420000000000002
aF81.560000000000002
aF81.640000000000001
aF81.739999999999995
aF81.700000000000003
aF81.799999999999997
aF81.859999999999999
aF81.980000000000004
aF81.840000000000003
aF81.700000000000003
aF81.659999999999997
aF81.519999999999996
aF81.540000000000006
aF81.519999999999996
aF81.560000000000002
aF81.459999999999994
aF81.340000000000003
aF81.319999999999993
aF81.260000000000005
aF81.519999999999996
aF81.680000000000007
aF81.760000000000005
aF81.819999999999993
aF81.939999999999998
aF81.939999999999998
aF81.840000000000003
aF81.780000000000001
aF81.700000000000003
aF81.760000000000005
aF81.780000000000001
aF81.560000000000002
aF81.480000000000004
aF81.420000000000002
aF81.400000000000006
aF81.519999999999996
aF81.480000000000004
aF81.659999999999997
aF81.700000000000003
aF81.739999999999995
aF81.719999999999999
aF81.739999999999995
aF81.760000000000005
aF81.719999999999999
aF81.680000000000007
aF81.840000000000003
aF81.920000000000002
aF82.079999999999998
aF82.019999999999996
aF82.079999999999998
aF82.079999999999998
aF82.200000000000003
aF82.299999999999997
aF82.439999999999998
aF82.340000000000003
aF82.400000000000006
aF82.379999999999995
aF82.420000000000002
aF82.420000000000002
aF82.400000000000006
aF82.5
aF82.5
aF82.519999999999996
aF82.519999999999996
aF82.560000000000002
aF82.620000000000005
aF82.659999999999997
aF82.640000000000001
aF82.680000000000007
aF82.719999999999999
aF82.579999999999998
aF82.560000000000002
aF82.599999999999994
aF82.599999999999994
aF82.560000000000002
a.