(lp1
F14.039999999999999
aF32.740000000000002
aF9.1600000000000001
aF30.16
aF45.740000000000002
aF52.640000000000001
aF62.060000000000002
aF41.560000000000002
aF66.439999999999998
aF59.359999999999999
aF64.480000000000004
aF68.599999999999994
aF66.719999999999999
aF67.819999999999993
aF70.219999999999999
aF66.180000000000007
aF69.120000000000005
aF65.420000000000002
aF68.319999999999993
aF67.280000000000001
aF66.900000000000006
aF68.780000000000001
aF63.840000000000003
aF67.939999999999998
aF64.859999999999999
aF68.219999999999999
aF72.299999999999997
aF72.400000000000006
aF73.120000000000005
aF72.560000000000002
aF67.079999999999998
aF73.959999999999994
aF71.400000000000006
aF70.659999999999997
aF72.540000000000006
aF71.980000000000004
aF71.980000000000004
aF69.159999999999997
aF70.420000000000002
aF70.680000000000007
aF70.019999999999996
aF70.299999999999997
aF73.620000000000005
aF77.420000000000002
aF75.959999999999994
aF71.859999999999999
aF71.019999999999996
aF74.780000000000001
aF75.379999999999995
aF72.959999999999994
aF73.579999999999998
aF74.959999999999994
aF70.439999999999998
aF75.079999999999998
aF74.040000000000006
aF74.780000000000001
aF76.120000000000005
aF73.400000000000006
aF72.280000000000001
aF74.780000000000001
aF78.5
aF75.180000000000007
aF76.560000000000002
aF77.120000000000005
aF73.859999999999999
aF78.579999999999998
aF79.379999999999995
aF81.099999999999994
aF80.299999999999997
aF80.099999999999994
aF80.219999999999999
aF78.760000000000005
aF70.519999999999996
aF78.239999999999995
aF74.700000000000003
aF75.760000000000005
aF75.200000000000003
aF78.760000000000005
aF79.480000000000004
aF78.799999999999997
aF77.540000000000006
aF80.900000000000006
aF75.700000000000003
aF80.219999999999999
aF80.959999999999994
aF79.780000000000001
aF77.980000000000004
aF78.040000000000006
aF81.840000000000003
aF80.659999999999997
aF80.659999999999997
aF81.319999999999993
aF81.540000000000006
aF83.180000000000007
aF77.200000000000003
aF82.359999999999999
aF82.079999999999998
aF81.700000000000003
aF83.379999999999995
aF81.560000000000002
aF77.359999999999999
aF72.439999999999998
aF79.340000000000003
aF78.879999999999995
aF81.659999999999997
aF81.420000000000002
aF82.739999999999995
aF81.060000000000002
aF77.319999999999993
aF80.840000000000003
aF80.599999999999994
aF81.239999999999995
aF80.159999999999997
aF81.939999999999998
aF80.519999999999996
aF73.260000000000005
aF82.280000000000001
aF83.340000000000003
aF77.939999999999998
aF78.540000000000006
aF79.200000000000003
aF77.420000000000002
aF79.420000000000002
aF79.340000000000003
aF79.040000000000006
aF75.140000000000001
aF76.819999999999993
aF77.719999999999999
aF79.099999999999994
aF79.640000000000001
aF80.719999999999999
aF82.280000000000001
aF80.060000000000002
aF82.859999999999999
aF81.780000000000001
aF78.680000000000007
aF80.659999999999997
aF78.519999999999996
aF80
aF82.200000000000003
aF79
aF79.620000000000005
aF80.180000000000007
aF80.439999999999998
aF79.819999999999993
aF78.780000000000001
aF80.920000000000002
aF80.840000000000003
aF80.760000000000005
aF79.540000000000006
aF82.5
aF76.680000000000007
aF80.840000000000003
aF81.760000000000005
aF75.760000000000005
aF80.519999999999996
aF80.079999999999998
aF81.420000000000002
aF75.420000000000002
aF79.540000000000006
aF77.060000000000002
aF80.959999999999994
aF79.640000000000001
aF80.120000000000005
aF78.760000000000005
aF80.640000000000001
aF79.480000000000004
aF79.319999999999993
aF77.680000000000007
aF79.439999999999998
aF79.819999999999993
aF73.579999999999998
aF75.859999999999999
aF73.560000000000002
aF78.140000000000001
aF78.319999999999993
aF78.920000000000002
aF78.439999999999998
aF75.519999999999996
aF81.5
aF81.640000000000001
aF80.620000000000005
aF74.079999999999998
aF80.519999999999996
aF82.780000000000001
aF77.079999999999998
aF76.019999999999996
aF79.159999999999997
aF79.519999999999996
aF80.579999999999998
aF79.120000000000005
aF71.439999999999998
aF74.5
aF71.760000000000005
aF76.019999999999996
aF73.879999999999995
aF76.659999999999997
aF74.980000000000004
aF71.040000000000006
aF72.060000000000002
aF69.480000000000004
aF71.879999999999995
aF75.799999999999997
aF74.5
aF62.140000000000001
aF68.980000000000004
aF68.579999999999998
aF73.560000000000002
aF73.560000000000002
aF74.599999999999994
aF74.920000000000002
aF77.060000000000002
aF76.159999999999997
aF78.659999999999997
aF78.239999999999995
aF77.700000000000003
aF78.879999999999995
aF79.319999999999993
aF78.379999999999995
aF79.219999999999999
aF75.159999999999997
aF79.659999999999997
aF79.560000000000002
aF71.540000000000006
aF77.900000000000006
aF78.019999999999996
aF76.620000000000005
aF78.900000000000006
aF79.180000000000007
aF69.439999999999998
aF78.459999999999994
aF67.480000000000004
aF67.739999999999995
aF69.620000000000005
aF68.599999999999994
aF62.840000000000003
aF69.239999999999995
aF71.120000000000005
aF71.780000000000001
aF68.099999999999994
aF56.979999999999997
aF65.439999999999998
aF71.260000000000005
aF74.700000000000003
aF72.920000000000002
aF73.340000000000003
aF75.840000000000003
aF73.379999999999995
aF67.700000000000003
aF72.659999999999997
aF76.700000000000003
aF76.819999999999993
aF73.200000000000003
aF79
aF75.280000000000001
aF76.680000000000007
aF56.82
aF64.840000000000003
aF67.579999999999998
aF65.359999999999999
aF68
aF68.920000000000002
aF67.859999999999999
aF67.659999999999997
aF62.020000000000003
aF67.579999999999998
aF61.880000000000003
aF61.32
aF62.200000000000003
aF51.799999999999997
aF62.280000000000001
aF62
aF65.060000000000002
aF65.319999999999993
aF67.799999999999997
aF66.060000000000002
aF68.519999999999996
aF66.859999999999999
aF66.760000000000005
aF41.399999999999999
aF56.020000000000003
aF65.140000000000001
aF60.200000000000003
aF67.579999999999998
aF68
aF66.060000000000002
aF70.280000000000001
aF71.140000000000001
aF68.540000000000006
aF66.819999999999993
aF68.799999999999997
aF71.200000000000003
aF60.700000000000003
aF69.079999999999998
aF69.540000000000006
aF69.620000000000005
aF69.659999999999997
aF68.359999999999999
aF71.200000000000003
aF68.840000000000003
aF71.379999999999995
aF69.700000000000003
aF71.180000000000007
aF71.859999999999999
aF72.560000000000002
aF74.280000000000001
aF70.819999999999993
aF74.560000000000002
aF68.180000000000007
aF69.480000000000004
aF69.659999999999997
aF68.420000000000002
aF70.780000000000001
aF69.5
aF67.420000000000002
aF72.680000000000007
aF69.239999999999995
aF71.180000000000007
aF71.579999999999998
aF61.780000000000001
aF62.159999999999997
aF63.600000000000001
aF65.260000000000005
aF59.079999999999998
aF66.640000000000001
aF63.899999999999999
aF67.579999999999998
aF67.319999999999993
aF67.340000000000003
aF69.239999999999995
aF68.540000000000006
aF69.379999999999995
aF63.840000000000003
aF67.019999999999996
aF68.799999999999997
aF70.879999999999995
aF69.760000000000005
aF70.560000000000002
aF64.879999999999995
aF71.340000000000003
aF71.180000000000007
aF67.219999999999999
aF71.760000000000005
aF69.760000000000005
aF63.280000000000001
aF69.959999999999994
aF70.260000000000005
aF70.260000000000005
aF69.680000000000007
aF73.040000000000006
aF68.280000000000001
aF71.579999999999998
aF66.540000000000006
aF71.680000000000007
aF69.680000000000007
aF76.319999999999993
aF75.239999999999995
aF74.480000000000004
aF70.060000000000002
aF69.939999999999998
aF68.200000000000003
aF69.939999999999998
aF71.439999999999998
aF72.040000000000006
aF78.480000000000004
aF71.859999999999999
aF71.959999999999994
aF70.680000000000007
aF63.479999999999997
aF68.879999999999995
aF66.799999999999997
aF62.240000000000002
aF60.920000000000002
aF53.32
aF51.979999999999997
aF54.159999999999997
aF50
aF55.299999999999997
aF55.82
aF59.479999999999997
aF57
aF54.200000000000003
aF58.920000000000002
aF61.299999999999997
aF63.079999999999998
aF62.18
aF64.540000000000006
aF59.100000000000001
aF59.399999999999999
aF61.020000000000003
aF58.659999999999997
aF63.020000000000003
aF65.420000000000002
aF61.119999999999997
aF65.780000000000001
aF67.159999999999997
aF69.140000000000001
aF67.739999999999995
aF68.659999999999997
aF68.099999999999994
aF69.459999999999994
aF68.840000000000003
aF69
aF69.879999999999995
aF69.180000000000007
aF70.799999999999997
aF72.620000000000005
aF63.719999999999999
aF62.340000000000003
aF64.900000000000006
aF61.240000000000002
aF64.379999999999995
aF63.82
aF65.400000000000006
aF64.180000000000007
aF60.259999999999998
aF62.700000000000003
aF64.560000000000002
aF67.159999999999997
aF56.780000000000001
aF58.479999999999997
aF62.119999999999997
aF59.979999999999997
aF62.939999999999998
aF51.780000000000001
aF59.719999999999999
aF59.979999999999997
aF58.700000000000003
aF58.539999999999999
aF57
aF62.439999999999998
aF43.840000000000003
aF65.040000000000006
aF64
aF23.359999999999999
aF47.759999999999998
aF58.060000000000002
aF61.020000000000003
aF62.780000000000001
aF62.079999999999998
aF69.579999999999998
aF69.420000000000002
aF68.359999999999999
aF46.759999999999998
aF63.159999999999997
aF67.420000000000002
aF62.259999999999998
aF65.540000000000006
aF62.740000000000002
aF58.479999999999997
aF67.219999999999999
aF65.560000000000002
aF65.560000000000002
aF64.319999999999993
aF66.700000000000003
aF64.620000000000005
aF66.319999999999993
aF64
aF62.32
aF63.159999999999997
aF63.799999999999997
aF64.280000000000001
aF64.040000000000006
aF64.239999999999995
aF62.560000000000002
aF58.82
aF61.780000000000001
aF63.619999999999997
aF62.259999999999998
aF66.180000000000007
aF66.560000000000002
aF65.540000000000006
aF68.540000000000006
aF69.420000000000002
aF63.68
aF67.640000000000001
aF69.599999999999994
aF67.239999999999995
aF69.299999999999997
aF67.159999999999997
aF63.960000000000001
aF60.420000000000002
aF61.960000000000001
aF61.859999999999999
aF54.659999999999997
aF56.439999999999998
aF62.560000000000002
aF56.380000000000003
aF55.859999999999999
aF57.240000000000002
aF54.119999999999997
aF61.899999999999999
aF63.119999999999997
aF55.340000000000003
aF61.68
aF62.520000000000003
aF56.420000000000002
aF56.68
aF64.340000000000003
aF64.760000000000005
a.