(lp1
F5.7400000000000002
aF14.619999999999999
aF33.18
aF34.899999999999999
aF22.02
aF28.780000000000001
aF39.640000000000001
aF46.140000000000001
aF52.740000000000002
aF55.659999999999997
aF59.32
aF63.82
aF67.040000000000006
aF69.400000000000006
aF70.739999999999995
aF72.060000000000002
aF72.640000000000001
aF73.459999999999994
aF74.620000000000005
aF75.200000000000003
aF75.640000000000001
aF76.480000000000004
aF77.219999999999999
aF78.200000000000003
aF77.620000000000005
aF78.379999999999995
aF78.640000000000001
aF78.140000000000001
aF79.400000000000006
aF79.200000000000003
aF79.780000000000001
aF80.340000000000003
aF80.319999999999993
aF79.980000000000004
aF80.5
aF81.079999999999998
aF81.180000000000007
aF80.819999999999993
aF80.299999999999997
aF81.379999999999995
aF81.659999999999997
aF82.299999999999997
aF81.819999999999993
aF82.359999999999999
aF82.879999999999995
aF82.739999999999995
aF82.459999999999994
aF83.099999999999994
aF82.799999999999997
aF82.900000000000006
aF83.519999999999996
aF83.560000000000002
aF82.959999999999994
aF83.299999999999997
aF83.519999999999996
aF82.319999999999993
aF83.099999999999994
aF83.079999999999998
aF82.700000000000003
aF82.420000000000002
aF82.760000000000005
aF82.439999999999998
aF82.019999999999996
aF82.980000000000004
aF82.599999999999994
aF83.900000000000006
aF84.019999999999996
aF83.5
aF83.700000000000003
aF83.599999999999994
aF83.760000000000005
aF83.939999999999998
aF83.739999999999995
aF84.239999999999995
aF84.239999999999995
aF83.859999999999999
aF83.579999999999998
aF83.260000000000005
aF84.640000000000001
aF83.560000000000002
aF83.579999999999998
aF84.459999999999994
aF83.879999999999995
aF84.159999999999997
aF83.939999999999998
aF84.099999999999994
aF83.280000000000001
aF83.260000000000005
aF83.799999999999997
aF84.060000000000002
aF84.519999999999996
aF84.739999999999995
aF85.420000000000002
aF85.560000000000002
aF85.260000000000005
aF85.379999999999995
aF85.299999999999997
aF85.200000000000003
aF85.420000000000002
aF85.319999999999993
aF85.379999999999995
aF85.620000000000005
aF84.939999999999998
aF84.120000000000005
aF84.799999999999997
aF86.060000000000002
aF85.840000000000003
aF85.859999999999999
aF85.620000000000005
aF87.140000000000001
aF86.5
aF86.579999999999998
aF86.620000000000005
aF86.019999999999996
aF85.859999999999999
aF86.200000000000003
aF85.379999999999995
aF85.019999999999996
aF86.620000000000005
aF86
aF85.739999999999995
aF86.099999999999994
aF86.040000000000006
aF86.599999999999994
aF85.959999999999994
aF84.120000000000005
aF85.939999999999998
aF85.959999999999994
aF86.5
aF86.799999999999997
aF87.159999999999997
aF86.280000000000001
aF86.200000000000003
aF86.280000000000001
aF86.540000000000006
aF86.920000000000002
aF86.400000000000006
aF85.239999999999995
aF87.239999999999995
aF86.939999999999998
aF86.719999999999999
aF86.780000000000001
aF85.959999999999994
aF86.540000000000006
aF85.959999999999994
aF86.219999999999999
aF85.840000000000003
aF85.379999999999995
aF85.5
aF86.420000000000002
aF86.159999999999997
aF85.400000000000006
aF86.239999999999995
aF86.079999999999998
aF85.780000000000001
aF85.760000000000005
aF85.920000000000002
aF86.760000000000005
aF87.200000000000003
aF87
aF87.620000000000005
aF86.379999999999995
aF86.640000000000001
aF86.340000000000003
aF86.579999999999998
aF86.840000000000003
aF86.560000000000002
aF86.159999999999997
aF86.599999999999994
aF86.620000000000005
aF86.739999999999995
aF85.959999999999994
aF86.859999999999999
aF86.420000000000002
aF86.760000000000005
aF86.540000000000006
aF87.200000000000003
aF86.019999999999996
aF86.040000000000006
aF84.680000000000007
aF87.099999999999994
aF87.019999999999996
aF86.939999999999998
aF86.079999999999998
aF85.739999999999995
aF85.420000000000002
aF86.819999999999993
aF87.5
aF87.760000000000005
aF86.560000000000002
aF86.359999999999999
aF86.840000000000003
aF86.739999999999995
aF87.700000000000003
aF88.079999999999998
aF87.700000000000003
aF87.840000000000003
aF87.060000000000002
aF86.799999999999997
aF87.019999999999996
aF87.680000000000007
aF88.040000000000006
aF87.840000000000003
aF88.040000000000006
aF88.239999999999995
aF88.140000000000001
aF88.040000000000006
aF88.340000000000003
aF88.299999999999997
aF88.159999999999997
aF87.939999999999998
aF86.579999999999998
aF87.579999999999998
aF87.540000000000006
aF86.799999999999997
aF88.120000000000005
aF87.400000000000006
aF87.920000000000002
aF87.640000000000001
aF88.120000000000005
aF88.420000000000002
aF87.859999999999999
aF87.239999999999995
aF86.959999999999994
aF87.540000000000006
aF87.900000000000006
aF87.400000000000006
aF88.040000000000006
aF87.700000000000003
aF87.519999999999996
aF87.719999999999999
aF87.659999999999997
aF87.739999999999995
aF87.239999999999995
aF87.519999999999996
aF87.900000000000006
aF88.099999999999994
aF87.239999999999995
aF88.040000000000006
aF88.400000000000006
aF87.980000000000004
aF87.939999999999998
aF88.159999999999997
aF85.519999999999996
aF87.239999999999995
aF87.359999999999999
aF87.099999999999994
aF87.120000000000005
aF87.519999999999996
aF87.459999999999994
aF87.780000000000001
aF87.739999999999995
aF88.019999999999996
aF87
aF87.760000000000005
aF87.599999999999994
aF87.859999999999999
aF88.140000000000001
aF88.099999999999994
aF88.219999999999999
aF88.040000000000006
aF88.560000000000002
aF88.659999999999997
aF88.840000000000003
aF88.459999999999994
aF87.439999999999998
aF87.959999999999994
aF87.920000000000002
aF86.900000000000006
aF86.180000000000007
aF85.120000000000005
aF88.180000000000007
aF88.620000000000005
aF87.980000000000004
aF88.219999999999999
aF88.040000000000006
aF87.540000000000006
aF87.780000000000001
aF88.659999999999997
aF86.719999999999999
aF88.579999999999998
aF88.519999999999996
aF88.5
aF86.780000000000001
aF85.859999999999999
aF85.859999999999999
aF87.180000000000007
aF86.599999999999994
aF86.819999999999993
aF86.980000000000004
aF88.260000000000005
aF88.040000000000006
aF88.019999999999996
aF88.099999999999994
aF88.219999999999999
aF87.260000000000005
aF89.099999999999994
aF89.319999999999993
aF88.560000000000002
aF88.719999999999999
aF88.719999999999999
aF88.340000000000003
aF88.5
aF88.859999999999999
aF88.340000000000003
aF88.379999999999995
aF88.439999999999998
aF88.519999999999996
aF87.959999999999994
aF88.400000000000006
aF88.579999999999998
aF88.239999999999995
aF88.819999999999993
aF88.579999999999998
aF88.400000000000006
aF88.560000000000002
aF88.239999999999995
aF88.840000000000003
aF88.019999999999996
aF89.040000000000006
aF88.900000000000006
aF89.159999999999997
aF89.040000000000006
aF89.060000000000002
aF88.640000000000001
aF87.120000000000005
aF89.280000000000001
aF89.799999999999997
aF89.780000000000001
aF89.420000000000002
aF88.959999999999994
aF88.879999999999995
aF88.939999999999998
aF88.939999999999998
aF89.239999999999995
aF88.040000000000006
aF88.939999999999998
aF89.700000000000003
aF89.560000000000002
aF88.799999999999997
aF89.480000000000004
aF89.379999999999995
aF89.620000000000005
aF89.040000000000006
aF87.420000000000002
aF88.739999999999995
aF89.400000000000006
aF89.140000000000001
aF88.920000000000002
aF89.200000000000003
aF89.760000000000005
aF89.400000000000006
aF89.5
aF89.939999999999998
aF90.019999999999996
aF89.299999999999997
aF90.159999999999997
aF89.879999999999995
aF89.859999999999999
aF90.060000000000002
aF87.959999999999994
aF88.540000000000006
aF89.120000000000005
aF89.420000000000002
aF89.319999999999993
aF89.579999999999998
aF88.799999999999997
aF88.719999999999999
aF89.400000000000006
aF89.299999999999997
aF89.439999999999998
aF90.180000000000007
aF89.560000000000002
aF89.739999999999995
aF89.599999999999994
aF89.640000000000001
aF89.040000000000006
aF89.5
aF89.439999999999998
aF89.780000000000001
aF89.579999999999998
aF89.640000000000001
aF89.439999999999998
aF89.299999999999997
aF90.560000000000002
aF90.140000000000001
aF89.859999999999999
aF90.019999999999996
aF89.879999999999995
aF89.980000000000004
aF89.340000000000003
aF89.400000000000006
aF89.920000000000002
aF89.159999999999997
aF89.480000000000004
aF88.120000000000005
aF89.5
aF89.260000000000005
aF90
aF90.480000000000004
aF90.120000000000005
aF90.420000000000002
aF90.480000000000004
aF89.680000000000007
aF89.560000000000002
aF90
aF90.319999999999993
aF90.400000000000006
aF90.400000000000006
aF90.719999999999999
aF90.200000000000003
aF89.959999999999994
aF90.019999999999996
aF89.560000000000002
aF88.939999999999998
aF89.480000000000004
aF88.640000000000001
aF89.480000000000004
aF89.079999999999998
aF89.519999999999996
aF90.180000000000007
aF89.640000000000001
aF89.959999999999994
aF90
aF90.019999999999996
aF90.159999999999997
aF90.319999999999993
aF89.640000000000001
aF90.099999999999994
aF90.400000000000006
aF90.180000000000007
aF90.079999999999998
aF90.560000000000002
aF90.5
aF90
aF89.219999999999999
aF90.019999999999996
aF88.400000000000006
aF90.439999999999998
aF90.319999999999993
aF90.5
aF89.939999999999998
aF90.540000000000006
aF90.400000000000006
aF90.659999999999997
aF90.280000000000001
aF90.180000000000007
aF89.959999999999994
aF89.159999999999997
aF90.159999999999997
aF89.780000000000001
aF89.340000000000003
aF89.780000000000001
aF90.780000000000001
aF90.760000000000005
aF90.400000000000006
aF90.980000000000004
aF90.019999999999996
aF90.280000000000001
aF90.280000000000001
aF90.840000000000003
aF89.799999999999997
aF89.239999999999995
aF89.879999999999995
aF89.879999999999995
aF90.760000000000005
aF90.319999999999993
aF90.5
aF89.799999999999997
aF89.719999999999999
aF90.760000000000005
aF90.079999999999998
aF89.340000000000003
aF89.760000000000005
aF90.659999999999997
aF90.540000000000006
aF90.340000000000003
aF90.260000000000005
aF90.879999999999995
aF90.760000000000005
aF90.939999999999998
aF91.540000000000006
aF91.439999999999998
aF91.640000000000001
aF91.219999999999999
aF90.599999999999994
aF90.540000000000006
aF90.760000000000005
aF90.859999999999999
aF91.280000000000001
aF90.760000000000005
aF90.439999999999998
aF91.359999999999999
aF90.560000000000002
aF90.739999999999995
aF90.540000000000006
aF90.780000000000001
aF90.400000000000006
aF89.680000000000007
aF90.519999999999996
a.