((lp1
(lp2
F10.849861860275269
aF55.335629940032959
aF9.1548340320587158
aF6.4233958721160889
aF29.782471895217896
aacnumpy.core.multiarray
scalar
p3
(cnumpy
dtype
p4
(S'f8'
I0
I1
tRp5
(I3
S'<'
NNNI-1
I-1
I0
tbS'\xcd\xcc\xccD*O6@'
tRp6
ag3
(g5
S'\x82\xff\xd7\x13\xfft2@'
tRp7
a(lp8
(lp9
F28.890000000000001
aF77.599999999999994
aF40.799999999999997
aF25.82
aF60.93
aag3
(g5
S'\x81\x95C\x8blgG@'
tRp10
ag3
(g5
S'g\xb1\x02\xc0f\xb93@'
tRp11
a(lp12
(lp13
I495
aI3232
aI448
aI264
aI1721
aag3
(g5
S'\x00\x00\x00\x00\x00@\x93@'
tRp14
ag3
(g5
S'\xe1\x9e\xef\xe6\x13\x96\x91@'
tRp15
atp16
.