((lp1
(lp2
F15.838204860687256
aF17.964706182479858
aF18.556843042373657
aF14.102978229522705
aF14.159425973892212
aacnumpy.core.multiarray
scalar
p3
(cnumpy
dtype
p4
(S'f8'
I0
I1
tRp5
(I3
S'<'
NNNI-1
I-1
I0
tbS'\xcd\xcc\xcc\xc0\xda\x1f0@'
tRp6
ag3
(g5
S'7p\x8d\x9c1\xca\xfd?'
tRp7
a(lp8
(lp9
F81.430000000000007
aF84.510000000000005
aF86.120000000000005
aF80.260000000000005
aF80.819999999999993
aag3
(g5
S'\xd5x\xe9&1\xa8T@'
tRp10
ag3
(g5
S'S\x897\xbakB\x02@'
tRp11
a(lp12
(lp13
I870
aI913
aI1049
aI759
aI773
aag3
(g5
S'fffffF\x8b@'
tRp14
ag3
(g5
S'\x02\x0c6\x93\xb9[Z@'
tRp15
atp16
.