((lp1
(lp2
F9.1248359680175781
aF9.1623799800872803
aF14.157278060913086
aF9.0906579494476318
aF11.205198049545288
aacnumpy.core.multiarray
scalar
p3
(cnumpy
dtype
p4
(S'f8'
I0
I1
tRp5
(I3
S'<'
NNNI-1
I-1
I0
tbS'\x9a\x99\x99\xa1\x9c\x18%@'
tRp6
ag3
(g5
S'\x80\xbf!\xe5\xc0\x9e\xff?'
tRp7
a(lp8
(lp9
F11.210000000000001
aF13.81
aF21.309999999999999
aF12.65
aF15.73
aag3
(g5
S'\xfb\xa9\xf1\xd2M\xe2-@'
tRp10
ag3
(g5
S'\xa1g|W|\x16\x0c@'
tRp11
a(lp12
(lp13
I200
aI204
aI562
aI189
aI329
aag3
(g5
S'\xcd\xcc\xcc\xcc\xcc\x8cr@'
tRp14
ag3
(g5
S'0\xf2j\xa4e\xc3a@'
tRp15
atp16
.