((lp1
(lp2
F5.7618288993835449
aF4.887362003326416
aF56.961566925048828
aF7.5656230449676514
aF10.067972183227539
aacnumpy.core.multiarray
scalar
p3
(cnumpy
dtype
p4
(S'f8'
I0
I1
tRp5
(I3
S'<'
NNNI-1
I-1
I0
tbS'\xcd\xcc\xcc\xc8\x82\x0c1@'
tRp6
ag3
(g5
S'8e\xc3\xc8\xef\x084@'
tRp7
a(lp8
(lp9
F21.050000000000001
aF12.380000000000001
aF72.450000000000003
aF18.23
aF25.350000000000001
aag3
(g5
S'2\x08\xac\x1cZ\xe4=@'
tRp10
ag3
(g5
S'\x10\xc2^u\x18\xb15@'
tRp11
a(lp12
(lp13
I217
aI165
aI3314
aI346
aI498
aag3
(g5
S'\x00\x00\x00\x00\x00`\x8c@'
tRp14
ag3
(g5
S'\x9a\x9bL\xa8\xfb\xe1\x92@'
tRp15
atp16
.