((lp1
(lp2
F27.853103876113892
aF16.260635852813721
aF21.399381875991821
aF20.060531854629517
aF15.841897010803223
aacnumpy.core.multiarray
scalar
p3
(cnumpy
dtype
p4
(S'f8'
I0
I1
tRp5
(I3
S'<'
NNNI-1
I-1
I0
tbS'333\xe7yH4@'
tRp6
ag3
(g5
S'\x83\xd6\x8d\xe2\xdec\x11@'
tRp7
a(lp8
(lp9
F83.079999999999998
aF63.170000000000002
aF67.799999999999997
aF73.739999999999995
aF75.540000000000006
aag3
(g5
S'\xb5\xc8v\xbe\x9f*R@'
tRp10
ag3
(g5
S'\xe7t\x01\x13\xfa:\x1b@'
tRp11
a(lp12
(lp13
I1182
aI556
aI938
aI913
aI621
aag3
(g5
S'\x00\x00\x00\x00\x00P\x8a@'
tRp14
ag3
(g5
S'\x84h\x0c<\r\x88l@'
tRp15
atp16
.