((lp1
(lp2
F11.539298057556152
aF15.089273929595947
aF10.109122037887573
aF9.8114819526672363
aF21.834114074707031
aacnumpy.core.multiarray
scalar
p3
(cnumpy
dtype
p4
(S'f8'
I0
I1
tRp5
(I3
S'<'
NNNI-1
I-1
I0
tbS'333\xebrZ+@'
tRp6
ag3
(g5
S'\xde\xd2vb,\xf5\x11@'
tRp7
a(lp8
(lp9
F71.060000000000002
aF70.370000000000005
aF69.75
aF56.210000000000001
aF80.159999999999997
aag3
(g5
S'p=\n\xd7\xa3`Q@'
tRp10
ag3
(g5
S'\xcd[\xb9@\xa2\xa5\x1e@'
tRp11
a(lp12
(lp13
I542
aI790
aI485
aI485
aI1232
aag3
(g5
S'fffff\x16\x86@'
tRp14
ag3
(g5
S'\x97j\xb0w;\xdcq@'
tRp15
atp16
.