((lp1
(lp2
F7.946768045425415
aF8.0462050437927246
aF9.5824720859527588
aF17.199951887130737
aF9.9928181171417236
aacnumpy.core.multiarray
scalar
p3
(cnumpy
dtype
p4
(S'f8'
I0
I1
tRp5
(I3
S'<'
NNNI-1
I-1
I0
tbS'\x9a\x99\x99\x19w\x1b%@'
tRp6
ag3
(g5
S'\xe1\x02\xdc\xed\x15^\x0b@'
tRp7
a(lp8
(lp9
F78.849999999999994
aF72.099999999999994
aF84.420000000000002
aF80.930000000000007
aF78.680000000000007
aag3
(g5
S':\xb4\xc8v\xbe\xbfS@'
tRp10
ag3
(g5
S'\xef}UZY\x15\x10@'
tRp11
a(lp12
(lp13
I667
aI639
aI807
aI1158
aI843
aag3
(g5
S'fffff\xb6\x89@'
tRp14
ag3
(g5
S'1\xde\xca\xd5\x18\x1fg@'
tRp15
atp16
.