(dp1
S'number_name'
p2
I12
sS'noise'
p3
(lp4
NaNaS'normal'
p5
aF0.10000000000000001
asS'algo'
p6
S'LBFGS'
p7
sS'structure'
p8
(lp9
I1
aI16
asS'result'
p10
((lp11
(lp12
F6.6230180263519287
aF2.905505895614624
aF4.9311821460723877
aF5.3270130157470703
aF3.3772320747375488
aacnumpy.core.multiarray
scalar
p13
(cnumpy
dtype
p14
(S'f8'
I0
I1
tRp15
(I3
S'<'
NNNI-1
I-1
I0
tbS'\x9a\x99\x99)\xfa\x87\x12@'
tRp16
ag13
(g15
S'\xb2@\x9c\xc1Z\x93\xf5?'
tRp17
a(lp18
(lp19
F41.310000000000002
aF45.719999999999999
aF59.700000000000003
aF34.869999999999997
aF38.030000000000001
aag13
(g15
S'J\x0c\x02+\x87\xf6E@'
tRp20
ag13
(g15
S'=!`\x99\xebU!@'
tRp21
a(lp22
(lp23
I284
aI143
aI247
aI263
aI171
aag13
(g15
S'33333\xb3k@'
tRp24
ag13
(g15
S'\x9a\x85/\xbb\xca`K@'
tRp25
atp26
s.