((lp1
(lp2
F35.064295053482056
aF24.932187795639038
aF35.257212162017822
aF32.092365980148315
aF32.383960008621216
aacnumpy.core.multiarray
scalar
p3
(cnumpy
dtype
p4
(S'f8'
I0
I1
tRp5
(I3
S'<'
NNNI-1
I-1
I0
tbS'\xcd\xcc\xccT-\xf2?@'
tRp6
ag3
(g5
S'\x1d\xb5$X\x18\xf4\r@'
tRp7
a(lp8
(lp9
F79.060000000000002
aF58.43
aF82.359999999999999
aF75.900000000000006
aF72.219999999999999
aag3
(g5
S'\xbdt\x93\x18\x04fR@'
tRp10
ag3
(g5
S'n\xeb\xc0\xf4\x08\x96 @'
tRp11
a(lp12
(lp13
I3119
aI2203
aI2984
aI2715
aI2739
aag3
(g5
S'\x00\x00\x00\x00\x00\x80\xa5@'
tRp14
ag3
(g5
S'\xf7w\x88=5\x98s@'
tRp15
atp16
.