(dp1
S'number_name'
p2
I22
sS'noise'
p3
(lp4
S'normal'
p5
aF0.10000000000000001
ag5
aF0.10000000000000001
asS'algo'
p6
S'LBFGS'
p7
sS'structure'
p8
(lp9
I1
aI16
asS'result'
p10
((lp11
(lp12
F5.3558149337768555
aF11.346672058105469
aF8.9261579513549805
aF10.427459001541138
aF3.9804561138153076
aacnumpy.core.multiarray
scalar
p13
(cnumpy
dtype
p14
(S'f8'
I0
I1
tRp15
(I3
S'<'
NNNI-1
I-1
I0
tbS'ffff\xbe\x03 @'
tRp16
ag13
(g15
S'>(\x9f\xb9\xa2\xef\x06@'
tRp17
a(lp18
(lp19
F29.890000000000001
aF46.969999999999999
aF11.59
aF19.079999999999998
aF11.539999999999999
aag13
(g15
S'\xaa\xf1\xd2Mb\xd07@'
tRp20
ag13
(g15
S'\x1b\xc3\x9b\x8bi\xc4*@'
tRp21
a(lp22
(lp23
I154
aI386
aI222
aI330
aI72
aag13
(g15
S'\x9a\x99\x99\x99\x99\x19m@'
tRp24
ag13
(g15
S'\x0f\x90\xafR\xc7\x86\\@'
tRp25
atp26
s.