(dp1
S'number_name'
p2
I21
sS'noise'
p3
(lp4
S'normal'
p5
aF0.10000000000000001
ag5
aF0.10000000000000001
asS'algo'
p6
S'ConjugateGradient'
p7
sS'structure'
p8
(lp9
I1
aI16
asS'result'
p10
((lp11
(lp12
F18.326261043548584
aF5.8148047924041748
aF5.874661922454834
aF7.0467870235443115
aF11.266331911087036
aacnumpy.core.multiarray
scalar
p13
(cnumpy
dtype
p14
(S'f8'
I0
I1
tRp15
(I3
S'<'
NNNI-1
I-1
I0
tbS'\x00\x00\x00\xb8\xdfT#@'
tRp16
ag13
(g15
S'"^b>\x89\x11\x13@'
tRp17
a(lp18
(lp19
F48.140000000000001
aF32.149999999999999
aF14.99
aF34.130000000000003
aF30.780000000000001
aag13
(g15
S'\xbe\x9f\x1a/\xdd\x04@@'
tRp20
ag13
(g15
S'\xf0\x8a\xf2\xe9\x87\x16%@'
tRp21
a(lp22
(lp23
I1085
aI198
aI174
aI257
aI571
aag13
(g15
S'\x00\x00\x00\x00\x00\x90|@'
tRp24
ag13
(g15
S'}\x87\x19+U\x8du@'
tRp25
atp26
s.