(dp1
S'number_name'
p2
I20
sS'noise'
p3
(lp4
S'normal'
p5
aF0.10000000000000001
ag5
aF0.10000000000000001
asS'algo'
p6
S'HessianFree'
p7
sS'structure'
p8
(lp9
I1
aI16
asS'result'
p10
((lp11
(lp12
F7.3381030559539795
aF5.487231969833374
aF5.002540111541748
aF5.6466519832611084
aF6.0938398838043213
aacnumpy.core.multiarray
scalar
p13
(cnumpy
dtype
p14
(S'f8'
I0
I1
tRp15
(I3
S'<'
NNNI-1
I-1
I0
tbS'\x00\x00\x00\x00\x9a\xa7\x17@'
tRp16
ag13
(g15
S'\xd1\xda\x91\x10\xce`\xe9?'
tRp17
a(lp18
(lp19
F21.449999999999999
aF10.32
aF9.8000000000000007
aF10.32
aF11.35
aag13
(g15
S'\xb2\x9d\xef\xa7\xc6K)@'
tRp20
ag13
(g15
S'\xd5\xa5?\xc5\xfd\xb7\x11@'
tRp21
a(lp22
(lp23
I97
aI61
aI56
aI60
aI70
aag13
(g15
S'333333Q@'
tRp24
ag13
(g15
S'<p\xde8\x0b\xa6-@'
tRp25
atp26
s.