(dp1
S'number_name'
p2
I0
sS'noise'
p3
(lp4
NaNaNaNasS'algo'
p5
S'HessianFree'
p6
sS'structure'
p7
(lp8
I1
aI16
asS'result'
p9
((lp10
(lp11
F4.2643270492553711
aF3.8422038555145264
aF3.8761551380157471
aF2.5456690788269043
aF3.0521290302276611
aacnumpy.core.multiarray
scalar
p12
(cnumpy
dtype
p13
(S'f8'
I0
I1
tRp14
(I3
S'<'
NNNI-1
I-1
I0
tbS'\x00\x00\x00`\xf7 \x0c@'
tRp15
ag12
(g14
S'tl\xff\xce\x9d\xff\xe3?'
tRp16
a(lp17
(lp18
F9.5800000000000001
aF29.48
aF18.93
aF9.8000000000000007
aF23.989999999999998
aag12
(g14
S'B`\xe5\xd0"[2@'
tRp19
ag12
(g14
S'XW\xcd|KK\x1f@'
tRp20
a(lp21
(lp22
I100
aI77
aI71
aI56
aI58
aag12
(g14
S'\x9a\x99\x99\x99\x99\x19R@'
tRp23
ag12
(g14
S'\x82i\t\x12\x9e\xc3/@'
tRp24
atp25
s.