(dp1
S'number_name'
p2
I1
sS'noise'
p3
(lp4
NaNaNaNasS'algo'
p5
S'ConjugateGradient'
p6
sS'structure'
p7
(lp8
I1
aI16
asS'result'
p9
((lp10
(lp11
F25.033073902130127
aF6.7960078716278076
aF3.4230208396911621
aF20.884845972061157
aF7.0374259948730469
aacnumpy.core.multiarray
scalar
p12
(cnumpy
dtype
p13
(S'f8'
I0
I1
tRp14
(I3
S'<'
NNNI-1
I-1
I0
tbS'333S\x0eE)@'
tRp15
ag12
(g14
S'\x9c\xfbD\x85\xa1@!@'
tRp16
a(lp17
(lp18
F45.719999999999999
aF43.799999999999997
aF35.020000000000003
aF9.8000000000000007
aF35.409999999999997
aag12
(g14
S'\x9a\x99\x99\x99\x99\xf9@@'
tRp19
ag12
(g14
S'\xd3=\xc2\xf6\x01\xa5)@'
tRp20
a(lp21
(lp22
I1630
aI440
aI187
aI1499
aI460
aag12
(g14
S'\x9a\x99\x99\x99\x99Y\x8a@'
tRp23
ag12
(g14
S'\x86E\xdc\x19\x7f\xb1\x82@'
tRp24
atp25
s.