(dp1
S'number_name'
p2
I11
sS'noise'
p3
(lp4
NaNaS'normal'
p5
aF0.10000000000000001
asS'algo'
p6
S'ConjugateGradient'
p7
sS'structure'
p8
(lp9
I1
aI16
asS'result'
p10
((lp11
(lp12
F11.693361043930054
aF1.7657730579376221
aF13.296584844589233
aF7.8850798606872559
aF5.9756879806518555
aacnumpy.core.multiarray
scalar
p13
(cnumpy
dtype
p14
(S'f8'
I0
I1
tRp15
(I3
S'<'
NNNI-1
I-1
I0
tbS'\xcd\xcc\xcc\xd4 ? @'
tRp16
ag13
(g15
S'n\xb1\xf2\x93\xffs\x10@'
tRp17
a(lp18
(lp19
F40.740000000000002
aF15.76
aF49.950000000000003
aF21.75
aF32.130000000000003
aag13
(g15
S'\x9b\xc4 \xb0r\x08@@'
tRp20
ag13
(g15
S']\x87\xc2\xbf\xf4\xc6(@'
tRp21
a(lp22
(lp23
I722
aI69
aI903
aI476
aI341
aag13
(g15
S'33333c\x7f@'
tRp24
ag13
(g15
S'\xf7"b\x9dY/r@'
tRp25
atp26
s.