(dp1
S'number_name'
p2
I2
sS'noise'
p3
(lp4
NaNaNaNasS'algo'
p5
S'LBFGS'
p6
sS'structure'
p7
(lp8
I1
aI16
asS'result'
p9
((lp10
(lp11
F5.3968031406402588
aF2.7690489292144775
aF14.796661853790283
aF13.568909883499146
aF15.412490844726562
aacnumpy.core.multiarray
scalar
p12
(cnumpy
dtype
p13
(S'f8'
I0
I1
tRp14
(I3
S'<'
NNNI-1
I-1
I0
tbS'fff\x8e\x0e\xc7$@'
tRp15
ag12
(g14
S'3\xc0\xd3\x18\xfc\xfe\x14@'
tRp16
a(lp17
(lp18
F36.93
aF21.870000000000001
aF16.100000000000001
aF68.519999999999996
aF55.799999999999997
aag12
(g14
S'z\xe9&1\x08\xecC@'
tRp19
ag12
(g14
S'\xe9\xc0C\xfdW\xdc3@'
tRp20
a(lp21
(lp22
I264
aI138
aI594
aI559
aI612
aag12
(g14
S'fffff\x16{@'
tRp23
ag12
(g14
S'b\xd3\x94\xfexTh@'
tRp24
atp25
s.