(dp1
S'number_name'
p2
I10
sS'noise'
p3
(lp4
NaNaS'normal'
p5
aF0.10000000000000001
asS'algo'
p6
S'HessianFree'
p7
sS'structure'
p8
(lp9
I1
aI16
asS'result'
p10
((lp11
(lp12
F3.2307569980621338
aF4.1848721504211426
aF3.1194038391113281
aF3.8126399517059326
aF2.174705982208252
aacnumpy.core.multiarray
scalar
p13
(cnumpy
dtype
p14
(S'f8'
I0
I1
tRp15
(I3
S'<'
NNNI-1
I-1
I0
tbS'\x00\x00\x00\x00\x91o\n@'
tRp16
ag13
(g15
S'U\x0bt\xbbm\xef\xe5?'
tRp17
a(lp18
(lp19
F15.119999999999999
aF8.9199999999999999
aF15.289999999999999
aF9.8000000000000007
aF11.35
aag13
(g15
S'\xfe\xd4x\xe9&1(@'
tRp20
ag13
(g15
S'\xd2L\xb9h\xb0>\x05@'
tRp21
a(lp22
(lp23
I57
aI101
aI59
aI76
aI54
aag13
(g15
S'\x9a\x99\x99\x99\x99YQ@'
tRp24
ag13
(g15
S"\xd8\x10\xf9'\x88\x8e1@"
tRp25
atp26
s.