((lp1
(lp2
F11.16487193107605
aF9.0532240867614746
aF10.14867901802063
aF8.8087859153747559
aF9.8272600173950195
aacnumpy.core.multiarray
scalar
p3
(cnumpy
dtype
p4
(S'f8'
I0
I1
tRp5
(I3
S'<'
NNNI-1
I-1
I0
tbS'\xcd\xcc\xcc\x8c\xe3\x99#@'
tRp6
ag3
(g5
S'\xd7\xec{\xd8\xb7\xde\xea?'
tRp7
a(lp8
(lp9
F15.4
aF9.8000000000000007
aF9.8000000000000007
aF9.8000000000000007
aF11.720000000000001
aag3
(g5
S'\xce\xf7S\xe3\xa5\x9b&@'
tRp10
ag3
(g5
S'XpG\x12:n\x01@'
tRp11
a(lp12
(lp13
I87
aI57
aI78
aI55
aI76
aag3
(g5
S'fffff\xa6Q@'
tRp14
ag3
(g5
S'\x95/\x03\x92\xcb\xff(@'
tRp15
atp16
.