((lp1
(lp2
F25.465034961700439
aF33.92047119140625
aF24.462445020675659
aF15.817117929458618
aF13.150876998901367
aacnumpy.core.multiarray
scalar
p3
(cnumpy
dtype
p4
(S'f8'
I0
I1
tRp5
(I3
S'<'
NNNI-1
I-1
I0
tbS'333+-\x906@'
tRp6
ag3
(g5
S'v!J\xdf\xcc\xab\x1d@'
tRp7
a(lp8
(lp9
F85.930000000000007
aF83.659999999999997
aF81.950000000000003
aF74.650000000000006
aF76.519999999999996
aag3
(g5
S'\xa6\x9b\xc4 \xb0"T@'
tRp10
ag3
(g5
S'\xfb\xda\xd5(\x8f\x1f\x11@'
tRp11
a(lp12
(lp13
I1051
aI1008
aI967
aI499
aI413
aag3
(g5
S'\xcd\xcc\xcc\xcc\xcc\x9c\x88@'
tRp14
ag3
(g5
S'i\xa9\xc6w\x80\x16q@'
tRp15
atp16
.