((lp1
(lp2
F112.42022681236267
aF89.746318817138672
aF116.9217689037323
aF91.321041822433472
aF78.961589097976685
aacnumpy.core.multiarray
scalar
p3
(cnumpy
dtype
p4
(S'f8'
I0
I1
tRp5
(I3
S'<'
NNNI-1
I-1
I0
tbS'\xcd\xcc\xcc\xb6\xf2wX@'
tRp6
ag3
(g5
S'\xb4\xc1\xb3\x96\t\xdc,@'
tRp7
a(lp8
(lp9
F88.5
aF86.810000000000002
aF88.700000000000003
aF86.680000000000007
aF86.230000000000004
aag3
(g5
S'\x7fj\xbct\x93\xd8U@'
tRp10
ag3
(g5
S'1\x92\x7fo\x926\xf0?'
tRp11
a(lp12
(lp13
I1026
aI812
aI1069
aI811
aI702
aag3
(g5
S'\x00\x00\x00\x00\x00\xa0\x8b@'
tRp14
ag3
(g5
S't\x93\x86 \x98\x80a@'
tRp15
atp16
.