((lp1
(lp2
F49.612730026245117
aF4.8473620414733887
aF64.196043014526367
aF49.745376110076904
aF55.873594045639038
aacnumpy.core.multiarray
scalar
p3
(cnumpy
dtype
p4
(S'f8'
I0
I1
tRp5
(I3
S'<'
NNNI-1
I-1
I0
tbS'fffTqmF@'
tRp6
ag3
(g5
S'\xb2{\x17\xf5q\xb34@'
tRp7
a(lp8
(lp9
F71.299999999999997
aF21.559999999999999
aF79.099999999999994
aF73.980000000000004
aF76.810000000000002
aag3
(g5
S'33333#P@'
tRp10
ag3
(g5
S'\x0e\xb8\xb3\xab\x9c\xa75@'
tRp11
a(lp12
(lp13
I2960
aI190
aI3855
aI2936
aI3368
aag3
(g5
S'\x9a\x99\x99\x99\x99\xcb\xa4@'
tRp14
ag3
(g5
S'\xc5j\x9b\xdb[\x01\x94@'
tRp15
atp16
.