((lp1
(lp2
F46.078499794006348
aF35.619498014450073
aF47.444200038909912
aF40.381711959838867
aF39.11275315284729
aacnumpy.core.multiarray
scalar
p3
(cnumpy
dtype
p4
(S'f8'
I0
I1
tRp5
(I3
S'<'
NNNI-1
I-1
I0
tbS'\x00\x00\x00<\x19\xddD@'
tRp6
ag3
(g5
S'\x7f\x1e\x1b\xc0m\xab\x11@'
tRp7
a(lp8
(lp9
F88.109999999999999
aF84.870000000000005
aF87.239999999999995
aF87.480000000000004
aF87.010000000000005
aag3
(g5
S'@5^\xbaI\xbcU@'
tRp10
ag3
(g5
S'\xb4\xdf\xeb\xaa\xfa\x95\xf1?'
tRp11
a(lp12
(lp13
I472
aI365
aI498
aI417
aI405
aag3
(g5
S'fffff\xf6z@'
tRp14
ag3
(g5
S'\x12\xef\x98d*\xdfG@'
tRp15
atp16
.