((lp1
(lp2
F90.979540109634399
aF107.98872303962708
aF97.594252109527588
aF108.10647797584534
aF102.57531213760376
aacnumpy.core.multiarray
scalar
p3
(cnumpy
dtype
p4
(S'f8'
I0
I1
tRp5
(I3
S'<'
NNNI-1
I-1
I0
tbS'\xcd\xcc\xcc#\xba\\Y@'
tRp6
ag3
(g5
S'\xe0\xf7\xef(\xcd\x18\x1a@'
tRp7
a(lp8
(lp9
F87.129999999999995
aF87.879999999999995
aF88.170000000000002
aF87.599999999999994
aF87.980000000000004
aag3
(g5
S'\xe3\xa5\x9b\xc4 \xf0U@'
tRp10
ag3
(g5
S'T\x7f\xb2\x83P!\xd7?'
tRp11
a(lp12
(lp13
I799
aI953
aI859
aI949
aI903
aag3
(g5
S'\xcd\xcc\xcc\xcc\xcc\xe4\x8b@'
tRp14
ag3
(g5
S'mrM\xbb\x96\x01M@'
tRp15
atp16
.