((lp1
(lp2
F4.8206398487091064
aF13.311923027038574
aF11.259262084960938
aF12.212782144546509
aF4.5756571292877197
aacnumpy.core.multiarray
scalar
p3
(cnumpy
dtype
p4
(S'f8'
I0
I1
tRp5
(I3
S'<'
NNNI-1
I-1
I0
tbS'333\xeb\xdbx"@'
tRp6
ag3
(g5
S'\xb0\xce\x93\x8b\x9b\x19\x0e@'
tRp7
a(lp8
(lp9
F39.810000000000002
aF9.8000000000000007
aF58.109999999999999
aF9.8000000000000007
aF17.710000000000001
aag3
(g5
S'\xb2\x9d\xef\xa7\xc6\x0b;@'
tRp10
ag3
(g5
S'\x88\x1c\xff\x95\x99\x063@'
tRp11
a(lp12
(lp13
I150
aI585
aI475
aI526
aI148
aag3
(g5
S'\xcd\xcc\xcc\xcc\xcc\x8cw@'
tRp14
ag3
(g5
S'\xd0\xf0d\x1eW\xa7g@'
tRp15
atp16
.