((lp1
(lp2
F5.2673971652984619
aF7.8560080528259277
aF8.1716711521148682
aF4.7371721267700195
aF11.280822038650513
aacnumpy.core.multiarray
scalar
p3
(cnumpy
dtype
p4
(S'f8'
I0
I1
tRp5
(I3
S'<'
NNNI-1
I-1
I0
tbS'333\x83\xb7\xd9\x1d@'
tRp6
ag3
(g5
S'\xf3C\x8b\xb2\x85\xc1\x02@'
tRp7
a(lp8
(lp9
F20.379999999999999
aF54.979999999999997
aF43.07
aF40.75
aF64.439999999999998
aag3
(g5
S'\xea&1\x08\xac\\F@'
tRp10
ag3
(g5
S'\x8b\xeb\xdd\x99\xa6\xbb-@'
tRp11
a(lp12
(lp13
I157
aI241
aI263
aI142
aI347
aag3
(g5
S'\x00\x00\x00\x00\x00\xc0l@'
tRp14
ag3
(g5
S'\xf8\xeb#\x1b\xed\xb2R@'
tRp15
atp16
.