((lp1
(lp2
F16.178911924362183
aF9.3143730163574219
aF9.0301620960235596
aF19.184566974639893
aF8.6100809574127197
aacnumpy.core.multiarray
scalar
p3
(cnumpy
dtype
p4
(S'f8'
I0
I1
tRp5
(I3
S'<'
NNNI-1
I-1
I0
tbS'\x00\x00\x00x_\xed(@'
tRp6
ag3
(g5
S'\xa9 \x17=\xf6{\x11@'
tRp7
a(lp8
(lp9
F57.119999999999997
aF46.659999999999997
aF33.18
aF9.8000000000000007
aF37.880000000000003
aag3
(g5
S'\x11X9\xb4\xc8vB@'
tRp10
ag3
(g5
S'\x83}{\x19%\xaa/@'
tRp11
a(lp12
(lp13
I488
aI179
aI152
aI640
aI143
aag3
(g5
S'fffff\x06t@'
tRp14
ag3
(g5
S'\x8c\x1f\xf0\n\xf1\x9ei@'
tRp15
atp16
.