((lp1
(lp2
F9.9809138774871826
aF11.902617931365967
aF17.241113901138306
aF15.719270944595337
aF12.398526906967163
aacnumpy.core.multiarray
scalar
p3
(cnumpy
dtype
p4
(S'f8'
I0
I1
tRp5
(I3
S'<'
NNNI-1
I-1
I0
tbS'\x00\x00\x00P\xa0\xe5*@'
tRp6
ag3
(g5
S'\xa4\x88\x1a.\xe2.\x05@'
tRp7
a(lp8
(lp9
F70.200000000000003
aF68.859999999999999
aF81.280000000000001
aF80.989999999999995
aF77.790000000000006
aag3
(g5
S'\xdb\xf9~j\xbc\xf4R@'
tRp10
ag3
(g5
S's$\xc1\xf1%3\x15@'
tRp11
a(lp12
(lp13
I464
aI590
aI905
aI884
aI656
aag3
(g5
S'fffff\xde\x85@'
tRp14
ag3
(g5
S'S\xdd6\x1a\xe8Te@'
tRp15
atp16
.