((lp1
(lp2
F119.57058501243591
aF109.17802405357361
aF97.776149034500122
aF98.857256889343262
aF117.87252306938171
aacnumpy.core.multiarray
scalar
p3
(cnumpy
dtype
p4
(S'f8'
I0
I1
tRp5
(I3
S'<'
NNNI-1
I-1
I0
tbS'fffx\xa8)[@'
tRp6
ag3
(g5
S'\xaa\x01\xda\x0fwM"@'
tRp7
a(lp8
(lp9
F88.430000000000007
aF87.950000000000003
aF88
aF88.079999999999998
aF89.040000000000006
aag3
(g5
S'33333\x13V@'
tRp10
ag3
(g5
S'\xd5\xe2\xb6P\xd3\x00\xda?'
tRp11
a(lp12
(lp13
I1076
aI1030
aI917
aI932
aI1117
aag3
(g5
S'33333\xb3\x8f@'
tRp14
ag3
(g5
S'm\xb8\xd9\xf1p\xa2S@'
tRp15
atp16
.