((lp1
(lp2
F52.55603814125061
aF57.554618120193481
aF28.996490001678467
aF7.1790289878845215
aF46.636436939239502
aacnumpy.core.multiarray
scalar
p3
(cnumpy
dtype
p4
(S'f8'
I0
I1
tRp5
(I3
S'<'
NNNI-1
I-1
I0
tbS'\x9a\x99\x99\xa1\xd1JC@'
tRp6
ag3
(g5
S'\xb1\x12\xc1\x9f\xd1m2@'
tRp7
a(lp8
(lp9
F76.239999999999995
aF72.969999999999999
aF70.129999999999995
aF18.52
aF76.340000000000003
aag3
(g5
S'\xebQ\xb8\x1e\x85kO@'
tRp10
ag3
(g5
S'x\tqm\x7fG6@'
tRp11
a(lp12
(lp13
I3123
aI3457
aI1649
aI322
aI2790
aag3
(g5
S'fffff\xb8\xa1@'
tRp14
ag3
(g5
S'TH\xae\x91:\xef\x91@'
tRp15
atp16
.