((lp1
(lp2
F18.393819093704224
aF10.462249040603638
aF11.743872880935669
aF10.268469095230103
aF13.561024188995361
aacnumpy.core.multiarray
scalar
p3
(cnumpy
dtype
p4
(S'f8'
I0
I1
tRp5
(I3
S'<'
NNNI-1
I-1
I0
tbS'fff\xf6\x92\xc5)@'
tRp6
ag3
(g5
S'+{\x07\xfe\xd9\xf3\x07@'
tRp7
a(lp8
(lp9
F36.340000000000003
aF41.340000000000003
aF49.560000000000002
aF63.780000000000001
aF50.420000000000002
aag3
(g5
S'\xbe\x9f\x1a/\xdd$H@'
tRp10
ag3
(g5
S'K.\x98\xad\xa6\xb3"@'
tRp11
a(lp12
(lp13
I402
aI195
aI235
aI183
aI312
aag3
(g5
S'fffff\x96p@'
tRp14
ag3
(g5
S'\xda\xbe\xa87\xb8vT@'
tRp15
atp16
.