((lp1
(lp2
F7.7942061424255371
aF4.8204030990600586
aF5.2358260154724121
aF7.2026669979095459
aF6.2809150218963623
aacnumpy.core.multiarray
scalar
p3
(cnumpy
dtype
p4
(S'f8'
I0
I1
tRp5
(I3
S'<'
NNNI-1
I-1
I0
tbS'\xcd\xcc\xcc\xec4\x11\x19@'
tRp6
ag3
(g5
S'S[?\xdf\t\r\xf2?'
tRp7
a(lp8
(lp9
F9.8000000000000007
aF9.8000000000000007
aF11.109999999999999
aF13.43
aF10.630000000000001
aag3
(g5
S'\x9c\xc4 \xb0r\xe8%@'
tRp10
ag3
(g5
S'`>0}\xe6_\xf5?'
tRp11
a(lp12
(lp13
I106
aI59
aI64
aI108
aI85
aag3
(g5
S'\x9a\x99\x99\x99\x99\x19U@'
tRp14
ag3
(g5
S'\x8c\xfb\xd3,\xebk4@'
tRp15
atp16
.