((lp1
(lp2
F5.8005020618438721
aF11.352694988250732
aF8.8105111122131348
aF7.0059390068054199
aF9.642409086227417
aacnumpy.core.multiarray
scalar
p3
(cnumpy
dtype
p4
(S'f8'
I0
I1
tRp5
(I3
S'<'
NNNI-1
I-1
I0
tbS'\xcd\xcc\xcc|y\x0b!@'
tRp6
ag3
(g5
S's\xe0dmi<\xff?'
tRp7
a(lp8
(lp9
F35.579999999999998
aF72.040000000000006
aF55.299999999999997
aF65.030000000000001
aF49.579999999999998
aag3
(g5
S'U\xe3\xa5\x9b\xc4\xc0K@'
tRp10
ag3
(g5
S'\xaeQ\xf6UJ=)@'
tRp11
a(lp12
(lp13
I177
aI344
aI278
aI213
aI299
aag3
(g5
S'33333cp@'
tRp14
ag3
(g5
S'L\xa8\x10C\x9f\xfaM@'
tRp15
atp16
.