((lp1
(lp2
F14.498538017272949
aF15.936417102813721
aF14.981384038925171
aF16.917111158370972
aF13.522418975830078
aacnumpy.core.multiarray
scalar
p3
(cnumpy
dtype
p4
(S'f8'
I0
I1
tRp5
(I3
S'<'
NNNI-1
I-1
I0
tbS'\x9a\x99\x99\x19\xa4W.@'
tRp6
ag3
(g5
S'\x07\x8d\x08q\x01\xb7\xf2?'
tRp7
a(lp8
(lp9
F82.150000000000006
aF79.75
aF79.530000000000001
aF81.769999999999996
aF75.230000000000004
aag3
(g5
S'\x96C\x8bl\xe7\xebS@'
tRp10
ag3
(g5
S'\x06<\xb7\x08x\xb1\x03@'
tRp11
a(lp12
(lp13
I785
aI903
aI820
aI966
aI743
aag3
(g5
S'33333[\x8a@'
tRp14
ag3
(g5
S'\x14\xfa\x9a\x06u1T@'
tRp15
atp16
.