((lp1
(lp2
F41.117656946182251
aF22.962737083435059
aF38.018226146697998
aF39.040187120437622
aF52.913481950759888
aacnumpy.core.multiarray
scalar
p3
(cnumpy
dtype
p4
(S'f8'
I0
I1
tRp5
(I3
S'<'
NNNI-1
I-1
I0
tbS'333\x15\xbdgC@'
tRp6
ag3
(g5
S'\xac\xc0\xc3\xda\xcb\x19#@'
tRp7
a(lp8
(lp9
F84.579999999999998
aF85.450000000000003
aF85.269999999999996
aF84.659999999999997
aF88.590000000000003
aag3
(g5
S'>\n\xd7\xa3pmU@'
tRp10
ag3
(g5
S'rL\x1c\x91_\xa9\xf7?'
tRp11
a(lp12
(lp13
I414
aI233
aI391
aI397
aI543
aag3
(g5
S'\x9a\x99\x99\x99\x99\xb9x@'
tRp14
ag3
(g5
S'-\xf7UH\t\xa1X@'
tRp15
atp16
.