((lp1
(lp2
F58.225287914276123
aF29.148478031158447
aF48.994534015655518
aF10.511544942855835
aF32.831539869308472
aacnumpy.core.multiarray
scalar
p3
(cnumpy
dtype
p4
(S'f8'
I0
I1
tRp5
(I3
S'<'
NNNI-1
I-1
I0
tbS'\x00\x00\x00\x88\x9c\xf8A@'
tRp6
ag3
(g5
S',\x0b\x06v\xb3\x8c0@'
tRp7
a(lp8
(lp9
F78.829999999999998
aF53.130000000000003
aF77.079999999999998
aF15.26
aF46.57
aag3
(g5
S'\x83\xc0\xca\xa1E\x16K@'
tRp10
ag3
(g5
S'\x1e\xb1N\x9fMC7@'
tRp11
a(lp12
(lp13
I3058
aI1360
aI2611
aI273
aI1601
aag3
(g5
S'fffff\xd2\x9b@'
tRp14
ag3
(g5
S'\xfe\x1e\x9e\x97\x16\xa1\x8e@'
tRp15
atp16
.