((lp1
(lp2
F62.857774972915649
aF73.885986089706421
aF57.847395896911621
aF43.703428983688354
aF47.171788930892944
aacnumpy.core.multiarray
scalar
p3
(cnumpy
dtype
p4
(S'f8'
I0
I1
tRp5
(I3
S'<'
NNNI-1
I-1
I0
tbS'333o\xf0\x8bL@'
tRp6
ag3
(g5
S'~\xa4\x0f\xedK\xca%@'
tRp7
a(lp8
(lp9
F87.060000000000002
aF88.790000000000006
aF87.829999999999998
aF85.159999999999997
aF84.790000000000006
aag3
(g5
S'Y9\xb4\xc8v\xaeU@'
tRp10
ag3
(g5
S'\xaf\xd0\xeb \xf9\x91\xf8?'
tRp11
a(lp12
(lp13
I607
aI734
aI563
aI394
aI419
aag3
(g5
S'33333\xfb\x80@'
tRp14
ag3
(g5
S'*\xaed\xd5\xe4U_@'
tRp15
atp16
.