((lp1
(lp2
F5.0170459747314453
aF5.6624078750610352
aF5.0138089656829834
aF8.0059289932250977
aF5.7800769805908203
aacnumpy.core.multiarray
scalar
p3
(cnumpy
dtype
p4
(S'f8'
I0
I1
tRp5
(I3
S'<'
NNNI-1
I-1
I0
tbS'\x00\x00\x00\xb0Z\x95\x17@'
tRp6
ag3
(g5
S'\xed\x93\xd5\xfeE\xa1\xf1?'
tRp7
a(lp8
(lp9
F9.8000000000000007
aF28.370000000000001
aF9.8000000000000007
aF9.8000000000000007
aF9.8000000000000007
aag3
(g5
S'\xbaI\x0c\x02+\x07+@'
tRp10
ag3
(g5
S'\x83\xc0\xca\xa1E\xb6\x1d@'
tRp11
a(lp12
(lp13
I60
aI74
aI61
aI119
aI78
aag3
(g5
S'\x9a\x99\x99\x99\x99\x99S@'
tRp14
ag3
(g5
S'4u\xb5\xfb\x8e}5@'
tRp15
atp16
.