((lp1
(lp2
F13.702511072158813
aF12.95694899559021
aF6.2893428802490234
aF5.5489981174468994
aF4.4227719306945801
aacnumpy.core.multiarray
scalar
p3
(cnumpy
dtype
p4
(S'f8'
I0
I1
tRp5
(I3
S'<'
NNNI-1
I-1
I0
tbS'\x9a\x99\x99\x11\x11+!@'
tRp6
ag3
(g5
S'\xda\xa6$\xc7\xe5j\x0f@'
tRp7
a(lp8
(lp9
F49.649999999999999
aF9.8000000000000007
aF29.969999999999999
aF34.950000000000003
aF35
aag3
(g5
S':\xb4\xc8v\xbe\xdf?@'
tRp10
ag3
(g5
S'\x85\x0ea\x08+\xb5)@'
tRp11
a(lp12
(lp13
I595
aI580
aI228
aI193
aI143
aag3
(g5
S'\xcd\xcc\xcc\xcc\xcc\xbcu@'
tRp14
ag3
(g5
S'\xfcO\x12\x0e\x13\xb4h@'
tRp15
atp16
.