((lp1
(lp2
F138.16441798210144
aF130.93927907943726
aF114.56167483329773
aF115.76365399360657
aF120.23035788536072
aF99.051865100860596
aF62.156900882720947
aF72.51924991607666
aF123.43502712249756
aF85.764230012893677
aacnumpy.core.multiarray
scalar
p3
(cnumpy
dtype
p4
(S'f8'
I0
I1
tRp5
(I3
S'<'
NNNI-1
I-1
I0
tbS'\x00\x00\x80\xfa\x8d\x90Z@'
tRp6
ag3
(g5
S'\xbffv\xcf:&8@'
tRp7
a(lp8
(lp9
F87.439999999999998
aF87.069999999999993
aF85.939999999999998
aF86.480000000000004
aF85.290000000000006
aF83.709999999999994
aF80.870000000000005
aF82.549999999999997
aF85.930000000000007
aF84.349999999999994
aag3
(g5
S'\x12\x83\xc0\xca\xa1=U@'
tRp10
ag3
(g5
S'x\x996m\xb0\xc1\xff?'
tRp11
a(lp12
(lp13
I1267
aI1201
aI1019
aI1053
aI1026
aI834
aI522
aI628
aI1104
aI755
aag3
(g5
S'33333g\x8d@'
tRp14
ag3
(g5
S'\xeb\x9dd\x93t4m@'
tRp15
atp16
.