((lp1
(lp2
F110.47411108016968
aF92.33952784538269
aF137.84027194976807
aF129.56383013725281
aF95.572147130966187
aF100.69244694709778
aF108.1179518699646
aF80.158288955688477
aF110.36386489868164
aF111.72995781898499
aacnumpy.core.multiarray
scalar
p3
(cnumpy
dtype
p4
(S'f8'
I0
I1
tRp5
(I3
S'<'
NNNI-1
I-1
I0
tbS'\xcd\xccL\xf8\xda\xebZ@'
tRp6
ag3
(g5
S'!W_x\x7f&0@'
tRp7
a(lp8
(lp9
F88.430000000000007
aF87.400000000000006
aF88.549999999999997
aF89.099999999999994
aF87.609999999999999
aF87.989999999999995
aF88.5
aF86.140000000000001
aF88.980000000000004
aF88.849999999999994
aag3
(g5
S'R\xb8\x1e\x85\xeb\tV@'
tRp10
ag3
(g5
S'F7\x8c\x14\xd6t\xeb?'
tRp11
a(lp12
(lp13
I998
aI816
aI1254
aI1175
aI875
aI925
aI1005
aI718
aI1002
aI1055
aag3
(g5
S'fffff\xb2\x8e@'
tRp14
ag3
(g5
S'\xf4\xb5\xf2B\xd5\xf1b@'
tRp15
atp16
.