((lp1
(lp2
F71.260141134262085
aF84.920053958892822
aF109.10160899162292
aF75.960275173187256
aF121.32271790504456
aacnumpy.core.multiarray
scalar
p3
(cnumpy
dtype
p4
(S'f8'
I0
I1
tRp5
(I3
S'<'
NNNI-1
I-1
I0
tbS'\xcd\xcc\xccS\xd4 W@'
tRp6
ag3
(g5
S'\x03\xd15\x91?o3@'
tRp7
a(lp8
(lp9
F83.25
aF83.909999999999997
aF85.590000000000003
aF83.819999999999993
aF85.969999999999999
aag3
(g5
S'\x8d\x97n\x12\x83 U@'
tRp10
ag3
(g5
S'\xbd\x11\xaa\xee\xa3\x1d\xf1?'
tRp11
a(lp12
(lp13
I622
aI754
aI993
aI657
aI1094
aag3
(g5
S'\x00\x00\x00\x00\x00\xc0\x89@'
tRp14
ag3
(g5
S'\x15(\x93M\x93cg@'
tRp15
atp16
.