((lp1
(lp2
F130.06424498558044
aF108.61506295204163
aF94.830641031265259
aF112.86397504806519
aF129.21588706970215
aacnumpy.core.multiarray
scalar
p3
(cnumpy
dtype
p4
(S'f8'
I0
I1
tRp5
(I3
S'<'
NNNI-1
I-1
I0
tbS'fff\xb1\x8c\xc7\\@'
tRp6
ag3
(g5
S'\xec\xfd\t\x9d\xa3\x8c*@'
tRp7
a(lp8
(lp9
F89.239999999999995
aF87.260000000000005
aF87.269999999999996
aF88.739999999999995
aF89.209999999999994
aag3
(g5
S'\xbct\x93\x18\x04\x16V@'
tRp10
ag3
(g5
S'\x10\xd3\xbd\x86\xfa\xc1\xec?'
tRp11
a(lp12
(lp13
I1197
aI991
aI871
aI1046
aI1206
aag3
(g5
S'\xcd\xcc\xcc\xcc\xcc\x98\x90@'
tRp14
ag3
(g5
S'\x05:\x00\xbe\xb9\xc4_@'
tRp15
atp16
.