(dp1
S'number_name'
p2
I2
sS'noise'
p3
(lp4
NaNaNaNasS'algo'
p5
S'LBFGS'
p6
sS'structure'
p7
(lp8
I1
aI256
asS'result'
p9
((lp10
(lp11
F22.773074150085449
aF18.400880098342896
aF38.240032911300659
aF96.29824686050415
aF56.782088994979858
aF31.300144910812378
aF87.247035980224609
aF67.160104990005493
aF29.671366930007935
aF80.588541030883789
aacnumpy.core.multiarray
scalar
p12
(cnumpy
dtype
p13
(S'f8'
I0
I1
tRp14
(I3
S'<'
NNNI-1
I-1
I0
tbS'\xcd\xcc\xcc\xb2NlJ@'
tRp15
ag12
(g14
S'8\xd2\x8f`l$;@'
tRp16
a(lp17
(lp18
F85.659999999999997
aF86.329999999999998
aF85.620000000000005
aF86.150000000000006
aF88.090000000000003
aF84.650000000000006
aF85.469999999999999
aF87.849999999999994
aF85.409999999999997
aF87.299999999999997
aag12
(g14
S'\xd4x\xe9&1\x90U@'
tRp19
ag12
(g14
S'\xd1?K\xf3[K\xf1?'
tRp20
a(lp21
(lp22
I138
aI135
aI220
aI383
aI294
aI194
aI386
aI318
aI190
aI361
aag12
(g14
S'fffff^p@'
tRp23
ag12
(g14
S'G\xc4y\xe1gSW@'
tRp24
atp25
s.