(dp1
S'number_name'
p2
I8
sS'noise'
p3
(lp4
S'normal'
p5
aF0.10000000000000001
ag5
aF0.10000000000000001
asS'algo'
p6
S'LBFGS'
p7
sS'structure'
p8
(lp9
I1
aI256
asS'result'
p10
((lp11
(lp12
F107.53740811347961
aF34.203746795654297
aF76.090705156326294
aF34.540798187255859
aF53.437612056732178
aF40.186212062835693
aF123.63451504707336
aF23.273216962814331
aF41.894362926483154
aF214.66693305969238
aacnumpy.core.multiarray
scalar
p13
(cnumpy
dtype
p14
(S'f8'
I0
I1
tRp15
(I3
S'<'
NNNI-1
I-1
I0
tbS'\xcd\xcc\xccJ\x94\xbcR@'
tRp16
ag13
(g15
S'\xa8\x04\xdb\x0c\xb1$L@'
tRp17
a(lp18
(lp19
F85.730000000000004
aF82.170000000000002
aF81.769999999999996
aF81.329999999999998
aF79.920000000000002
aF81.609999999999999
aF82.950000000000003
aF77.760000000000005
aF83.319999999999993
aF86.329999999999998
aag13
(g15
S'\xd1"\xdb\xf9~\x92T@'
tRp20
ag13
(g15
S'\xacUMe&-\x03@'
tRp21
a(lp22
(lp23
I433
aI203
aI355
aI206
aI270
aI235
aI489
aI152
aI230
aI637
aag13
(g15
S'\x00\x00\x00\x00\x00\x10t@'
tRp24
ag13
(g15
S'\xbfWKr~\\b@'
tRp25
atp26
s.