(dp1
S'number_name'
p2
I27
sS'noise'
p3
(lp4
S'normal'
p5
aF0.10000000000000001
ag5
aF0.10000000000000001
asS'algo'
p6
S'LBFGS'
p7
sS'structure'
p8
(lp9
I1
aI256
asS'result'
p10
((lp11
(lp12
F72.86192798614502
aF139.2098548412323
aF37.992020130157471
aF123.62735199928284
aF126.2123429775238
aacnumpy.core.multiarray
scalar
p13
(cnumpy
dtype
p14
(S'f8'
I0
I1
tRp15
(I3
S'<'
NNNI-1
I-1
I0
tbS'333\xc8\xc3\xfeX@'
tRp16
ag13
(g15
S'\x07\xd0\xddQV0C@'
tRp17
a(lp18
(lp19
F84.370000000000005
aF85.569999999999993
aF81.379999999999995
aF84.709999999999994
aF85.790000000000006
aag13
(g15
S'\x9e\xef\xa7\xc6K\x17U@'
tRp20
ag13
(g15
S'QG\xa1\x8cnO\xf9?'
tRp21
a(lp22
(lp23
I331
aI510
aI226
aI470
aI447
aag13
(g15
S'\xcd\xcc\xcc\xcc\xcc\xccx@'
tRp24
ag13
(g15
S'g\x810\x95\x0f\x07Z@'
tRp25
atp26
s.