(dp1
S'number_name'
p2
I7
sS'noise'
p3
(lp4
NaNaNaNasS'algo'
p5
S'LBFGS'
p6
sS'structure'
p7
(lp8
I1
aI256
asS'result'
p9
((lp10
(lp11
F49.473502159118652
aF354.69902801513672
aF40.256627798080444
aF52.242779970169067
aF48.78578519821167
aacnumpy.core.multiarray
scalar
p12
(cnumpy
dtype
p13
(S'f8'
I0
I1
tRp14
(I3
S'<'
NNNI-1
I-1
I0
tbS'\x00\x00\x00\xde\xdbE[@'
tRp15
ag12
(g14
S'\xff\xcd\xe8h\xa0\xb7^@'
tRp16
a(lp17
(lp18
F88
aF89.810000000000002
aF86.870000000000005
aF85.420000000000002
aF87.319999999999993
aag12
(g14
S'\xe6\xd0"\xdb\xf9\xdeU@'
tRp19
ag12
(g14
S'\x05.m\x14k\x02\xf7?'
tRp20
a(lp21
(lp22
I286
aI829
aI237
aI279
aI279
aag12
(g14
S'\x00\x00\x00\x00\x00\xe0w@'
tRp23
ag12
(g14
S'\x1cRXl\x8a\x05l@'
tRp24
atp25
s.