(dp1
S'number_name'
p2
I7
sS'noise'
p3
(lp4
S'normal'
p5
aF0.10000000000000001
ag5
aF0.10000000000000001
asS'algo'
p6
S'ConjugateGradient'
p7
sS'structure'
p8
(lp9
I1
aI256
asS'result'
p10
((lp11
(lp12
F54.443733930587769
aF25.771431922912598
aF37.573055028915405
aF42.126380920410156
aF35.074682950973511
aF34.877177000045776
aF21.827558040618896
aF41.577148199081421
aF44.539000988006592
aF28.571310043334961
aacnumpy.core.multiarray
scalar
p13
(cnumpy
dtype
p14
(S'f8'
I0
I1
tRp15
(I3
S'<'
NNNI-1
I-1
I0
tbS'\x9a\x99\x99\xd4\xaeQB@'
tRp16
ag13
(g15
S'\xc7\xa2^4\xad\\"@'
tRp17
a(lp18
(lp19
F88.030000000000001
aF82.939999999999998
aF86.519999999999996
aF86.659999999999997
aF84.719999999999999
aF86.109999999999999
aF83.790000000000006
aF85.629999999999995
aF86.939999999999998
aF84.909999999999997
aag13
(g15
S'\xff\xff\xff\xff\xffgU@'
tRp20
ag13
(g15
S'\x80\xf0\xaak\xbfy\xf7?'
tRp21
a(lp22
(lp23
I579
aI292
aI457
aI431
aI373
aI373
aI231
aI484
aI516
aI332
aag13
(g15
S'\xcd\xcc\xcc\xcc\xccly@'
tRp24
ag13
(g15
S'.\xc3\x8a\xfd\xe7RY@'
tRp25
atp26
s.