(dp1
S'number_name'
p2
I26
sS'noise'
p3
(lp4
S'normal'
p5
aF0.10000000000000001
ag5
aF0.10000000000000001
asS'algo'
p6
S'ConjugateGradient'
p7
sS'structure'
p8
(lp9
I1
aI256
asS'result'
p10
((lp11
(lp12
F30.653888940811157
aF35.684798955917358
aF33.941915035247803
aF41.806941032409668
aF51.757747173309326
aacnumpy.core.multiarray
scalar
p13
(cnumpy
dtype
p14
(S'f8'
I0
I1
tRp15
(I3
S'<'
NNNI-1
I-1
I0
tbS'\x00\x00\x00\x80pbC@'
tRp16
ag13
(g15
S'h\x8f7\xf0O\xc0\x1d@'
tRp17
a(lp18
(lp19
F85.400000000000006
aF85.680000000000007
aF85.430000000000007
aF86.340000000000003
aF87.549999999999997
aag13
(g15
S'\x86\xebQ\xb8\x1e\x85U@'
tRp20
ag13
(g15
S'\xc0,D\xe1U\xe4\xe9?'
tRp21
a(lp22
(lp23
I340
aI376
aI362
aI453
aI593
aag13
(g15
S'\xcd\xcc\xcc\xcc\xcc\x8cz@'
tRp24
ag13
(g15
S'>x\xd8\xe9\xa3\x13W@'
tRp25
atp26
s.