(dp1
S'number_name'
p2
I1
sS'noise'
p3
(lp4
NaNaNaNasS'algo'
p5
S'ConjugateGradient'
p6
sS'structure'
p7
(lp8
I1
aI256
asS'result'
p9
((lp10
(lp11
F26.77326512336731
aF31.659584045410156
aF27.192769050598145
aF59.411638021469116
aF32.579667091369629
aF33.254671096801758
aF35.768538951873779
aF21.132074117660522
aF23.838973999023438
aF33.18175482749939
aacnumpy.core.multiarray
scalar
p12
(cnumpy
dtype
p13
(S'f8'
I0
I1
tRp14
(I3
S'<'
NNNI-1
I-1
I0
tbS'fff~Y=@@'
tRp15
ag12
(g14
S']\xb2\xfc^\xc7\x04$@'
tRp16
a(lp17
(lp18
F87.719999999999999
aF88.540000000000006
aF87.120000000000005
aF89.920000000000002
aF88.390000000000001
aF88.200000000000003
aF88.489999999999995
aF86.900000000000006
aF86.920000000000002
aF87.260000000000005
aag12
(g14
S'\x06\x81\x95C\x8b\xfcU@'
tRp19
ag12
(g14
S'\xe3\x8c=\xa9\x13\xe7\xec?'
tRp20
a(lp21
(lp22
I333
aI397
aI314
aI665
aI406
aI412
aI433
aI269
aI288
aI342
aag12
(g14
S'fffff\x1ex@'
tRp23
ag12
(g14
S'\x8b}\ns^\xbfZ@'
tRp24
atp25
s.