(dp1
S'number_name'
p2
I6
sS'noise'
p3
(lp4
NaNaNaNasS'algo'
p5
S'ConjugateGradient'
p6
sS'structure'
p7
(lp8
I1
aI256
asS'result'
p9
((lp10
(lp11
F28.547221899032593
aF67.394567012786865
aF37.376033067703247
aF29.897107124328613
aF33.925873041152954
aacnumpy.core.multiarray
scalar
p12
(cnumpy
dtype
p13
(S'f8'
I0
I1
tRp14
(I3
S'<'
NNNI-1
I-1
I0
tbS'\x00\x00\x00\xf6\xcd\xb6C@'
tRp15
ag12
(g14
S'\x15?[,\xbc\xa5,@'
tRp16
a(lp17
(lp18
F86.780000000000001
aF89.670000000000002
aF88.120000000000005
aF88.950000000000003
aF88.459999999999994
aag12
(g14
S'\xd2Mb\x10X\x19V@'
tRp19
ag12
(g14
S'\xa3K@\xdf\x04\xc4\xee?'
tRp20
a(lp21
(lp22
I368
aI664
aI415
aI388
aI434
aag12
(g14
S'\xcd\xcc\xcc\xcc\xcc\\|@'
tRp23
ag12
(g14
S'\xc5@\x9d5\x7f\xdfZ@'
tRp24
atp25
s.