((lp1
(lp2
F37.542191982269287
aF58.644099950790405
aF69.602445125579834
aF66.006249904632568
aF65.487296104431152
aF55.217455148696899
aF55.222689151763916
aF70.303079843521118
aF60.483066082000732
aF65.259186029434204
aacnumpy.core.multiarray
scalar
p3
(cnumpy
dtype
p4
(S'f8'
I0
I1
tRp5
(I3
S'<'
NNNI-1
I-1
I0
tbS'\x9a\x99\x991:0N@'
tRp6
ag3
(g5
S'-\x1e\xd4\xa9\xaa\\"@'
tRp7
a(lp8
(lp9
F81
aF84.459999999999994
aF83.840000000000003
aF85.140000000000001
aF84.980000000000004
aF82.159999999999997
aF84.549999999999997
aF85.620000000000005
aF84.739999999999995
aF85.670000000000002
aag3
(g5
S'\xe7\xfb\xa9\xf1\xd2\rU@'
tRp10
ag3
(g5
S'|\xa7\xee\t8\x02\xf7?'
tRp11
a(lp12
(lp13
I331
aI580
aI704
aI666
aI661
aI542
aI546
aI695
aI590
aI639
aag3
(g5
S'33333\x9b\x82@'
tRp14
ag3
(g5
S'\x8f"\xc4\xc2h\x06Z@'
tRp15
atp16
.