((lp1
(lp2
F47.854220151901245
aF101.18189811706543
aF44.788393974304199
aF63.348795890808105
aF43.526148080825806
aacnumpy.core.multiarray
scalar
p3
(cnumpy
dtype
p4
(S'f8'
I0
I1
tRp5
(I3
S'<'
NNNI-1
I-1
I0
tbS'\xcd\xcc\xcc\xf4\xe7\x11N@'
tRp6
ag3
(g5
S'\xd7\x11U\x99\xa3\xb65@'
tRp7
a(lp8
(lp9
F82.879999999999995
aF85.469999999999999
aF82.5
aF84.129999999999995
aF80.810000000000002
aag3
(g5
S"'1\x08\xac\x1c\xcaT@"
tRp10
ag3
(g5
S'^\x83\x07&\xd8\x1b\xf9?'
tRp11
a(lp12
(lp13
I399
aI980
aI380
aI597
aI401
aag3
(g5
S'33333;\x81@'
tRp14
ag3
(g5
S'\x0e\x00~\xb3(\x8fl@'
tRp15
atp16
.