((lp1
(lp2
F25.111545085906982
aF44.387146949768066
aF56.776242971420288
aF56.04897403717041
aF47.224809885025024
aacnumpy.core.multiarray
scalar
p3
(cnumpy
dtype
p4
(S'f8'
I0
I1
tRp5
(I3
S'<'
NNNI-1
I-1
I0
tbS'\x00\x00\x00|r\xf4F@'
tRp6
ag3
(g5
S'?\x040\rE\xef&@'
tRp7
a(lp8
(lp9
F81.620000000000005
aF86.659999999999997
aF87
aF87.390000000000001
aF86.489999999999995
aag3
(g5
S'i\x91\xed|?uU@'
tRp10
ag3
(g5
S'P\xa9\x83\x85\x06\x07\x01@'
tRp11
a(lp12
(lp13
I248
aI442
aI542
aI577
aI462
aag3
(g5
S'33333c|@'
tRp14
ag3
(g5
S'\xa0\x08\xfb\xfb\x12\x9e\\@'
tRp15
atp16
.