((lp1
(lp2
F94.06426215171814
aF63.978453874588013
aF67.685727119445801
aF60.547652006149292
aF53.621863126754761
aF64.14486289024353
aF62.7847740650177
aF87.548440933227539
aF60.450047016143799
aF52.804002046585083
aacnumpy.core.multiarray
scalar
p3
(cnumpy
dtype
p4
(S'f8'
I0
I1
tRp5
(I3
S'<'
NNNI-1
I-1
I0
tbS'33\xb3!\xd5\xb0P@'
tRp6
ag3
(g5
S'\xb3\x1f.\xe1!\xba)@'
tRp7
a(lp8
(lp9
F90.120000000000005
aF89.420000000000002
aF87.540000000000006
aF87.530000000000001
aF87.579999999999998
aF88.900000000000006
aF87.109999999999999
aF88.549999999999997
aF88.120000000000005
aF87.159999999999997
aag3
(g5
S'\xa2E\xb6\xf3\xfd\x0cV@'
tRp10
ag3
(g5
S'h\xc9\x1ac\xbf\xe9\xee?'
tRp11
a(lp12
(lp13
I1009
aI667
aI665
aI610
aI560
aI667
aI650
aI912
aI606
aI538
aag3
(g5
S'33333\x83\x85@'
tRp14
ag3
(g5
S'\x8c\xef\xb7\x0cx\x04b@'
tRp15
atp16
.