(dp1
S'number_name'
p2
I5
sS'noise'
p3
(lp4
NaNaNaNasS'algo'
p5
S'HessianFree'
p6
sS'structure'
p7
(lp8
I1
aI256
asS'result'
p9
((lp10
(lp11
F19.895685911178589
aF18.619359016418457
aF20.979805946350098
aF21.378595113754272
aF44.615187883377075
aacnumpy.core.multiarray
scalar
p12
(cnumpy
dtype
p13
(S'f8'
I0
I1
tRp14
(I3
S'<'
NNNI-1
I-1
I0
tbS'333\x9f\x04\x199@'
tRp15
ag12
(g14
S'\xf7G/Nz\x9c#@'
tRp16
a(lp17
(lp18
F65.489999999999995
aF71.959999999999994
aF75.340000000000003
aF49.399999999999999
aF66.730000000000004
aag12
(g14
S'\x19\x04V\x0e-rP@'
tRp19
ag12
(g14
S'z\x83\x07\xa8\x08\xdd!@'
tRp20
a(lp21
(lp22
I119
aI112
aI128
aI123
aI193
aag12
(g14
S'\x00\x00\x00\x00\x00\xe0`@'
tRp23
ag12
(g14
S'"\xcb\xdf\xf6\xf7w=@'
tRp24
atp25
s.