(dp1
S'number_name'
p2
I0
sS'noise'
p3
(lp4
NaNaNaNasS'algo'
p5
S'HessianFree'
p6
sS'structure'
p7
(lp8
I1
aI256
asS'result'
p9
((lp10
(lp11
F12.868216037750244
aF11.285968065261841
aF11.835803031921387
aF18.646908044815063
aF9.9928100109100342
aF35.737380027770996
aF18.172189950942993
aF16.018182992935181
aF42.628048896789551
aF16.682711124420166
aacnumpy.core.multiarray
scalar
p12
(cnumpy
dtype
p13
(S'f8'
I0
I1
tRp14
(I3
S'<'
NNNI-1
I-1
I0
tbS'333\xc1\x06c3@'
tRp15
ag12
(g14
S'\xd1\x1b6L\xb3\xcc$@'
tRp16
a(lp17
(lp18
F80.219999999999999
aF68.439999999999998
aF18.530000000000001
aF67.069999999999993
aF35.200000000000003
aF61.259999999999998
aF73.849999999999994
aF67.599999999999994
aF65.980000000000004
aF65.269999999999996
aag12
(g14
S'\xb2\x9d\xef\xa7\xc6+N@'
tRp19
ag12
(g14
S'mp\x0c\x89\xfc\xd31@'
tRp20
a(lp21
(lp22
I74
aI63
aI57
aI105
aI55
aI218
aI107
aI77
aI254
aI103
aag12
(g14
S'33333\xd3[@'
tRp23
ag12
(g14
S'\xc9\xe0\xe8\xef\x96_P@'
tRp24
atp25
s.