(dp1
S'number_name'
p2
I25
sS'noise'
p3
(lp4
S'normal'
p5
aF0.10000000000000001
ag5
aF0.10000000000000001
asS'algo'
p6
S'HessianFree'
p7
sS'structure'
p8
(lp9
I1
aI256
asS'result'
p10
((lp11
(lp12
F15.101820945739746
aF27.311969041824341
aF49.050960063934326
aF52.392729997634888
aF47.056210994720459
aacnumpy.core.multiarray
scalar
p13
(cnumpy
dtype
p14
(S'f8'
I0
I1
tRp15
(I3
S'<'
NNNI-1
I-1
I0
tbS'333\xf7c\x17C@'
tRp16
ag13
(g15
S'\xda\xe9\x9c\xfcv\xfa,@'
tRp17
a(lp18
(lp19
F36.560000000000002
aF74.049999999999997
aF78.549999999999997
aF72.590000000000003
aF78.760000000000005
aag13
(g15
S'J\x0c\x02+\x87\x06Q@'
tRp20
ag13
(g15
S'\t\xef\xc2@\x1f\xea/@'
tRp21
a(lp22
(lp23
I69
aI142
aI243
aI258
aI241
aag13
(g15
S'33333\xd3g@'
tRp24
ag13
(g15
S'\xbdb,\xbf\x08]R@'
tRp25
atp26
s.