(dp1
S'number_name'
p2
I6
sS'noise'
p3
(lp4
S'normal'
p5
aF0.10000000000000001
ag5
aF0.10000000000000001
asS'algo'
p6
S'HessianFree'
p7
sS'structure'
p8
(lp9
I1
aI256
asS'result'
p10
((lp11
(lp12
F31.440464019775391
aF25.901355981826782
aF12.013563871383667
aF9.4486069679260254
aF37.407953977584839
aF22.033814907073975
aF28.683859825134277
aF28.70163893699646
aF34.202996015548706
aF43.404191017150879
aacnumpy.core.multiarray
scalar
p13
(cnumpy
dtype
p14
(S'f8'
I0
I1
tRp15
(I3
S'<'
NNNI-1
I-1
I0
tbS'\x00\x00\x00z\xe7R;@'
tRp16
ag13
(g15
S'\xbb\x87\xcf\xaa0\x1f$@'
tRp17
a(lp18
(lp19
F74.420000000000002
aF75.840000000000003
aF23.059999999999999
aF9.9600000000000009
aF75.549999999999997
aF59.329999999999998
aF67.959999999999994
aF51.600000000000001
aF65.689999999999998
aF75.530000000000001
aag13
(g15
S'\xdeO\x8d\x97n\xf2L@'
tRp20
ag13
(g15
S'\x1b\xe47F\xba56@'
tRp21
a(lp22
(lp23
I177
aI137
aI54
aI56
aI182
aI113
aI144
aI125
aI172
aI236
aag13
(g15
S'33333sa@'
tRp24
ag13
(g15
S'\xb2P\x7f\xae|\xd5J@'
tRp25
atp26
s.