(dp1
S'hess'
p2
(dp3
S'test'
p4
(dp5
S'acc'
p6
(dp7
S'full'
p8
(lp9
F59.299999999999997
aF63.939999999999998
aF53.659999999999997
aF67.859999999999999
aF55.350000000000001
aF55.240000000000002
aF12.66
aF58.140000000000001
aF10.1
aF60.350000000000001
aF60.039999999999999
aF72.959999999999994
aF70.5
aF28.48
aF63.520000000000003
asS'sd'
p10
cnumpy.core.multiarray
scalar
p11
(cnumpy
dtype
p12
(S'f8'
I0
I1
tRp13
(I3
S'<'
NNNI-1
I-1
I0
tbS'\x13\xe1-\x0cu\xfb2@'
tRp14
sS'mean'
p15
g11
(g13
S'\xa7\rt\xda@gJ@'
tRp16
ssS'iters'
p17
(dp18
g8
(lp19
I92
aI109
aI121
aI120
aI168
aI109
aI100
aI141
aI53
aI125
aI60
aI215
aI79
aI56
aI138
asg10
g11
(g13
S'\x90(\x91X\xb0\x08E@'
tRp20
sg15
g11
(g13
S'\x9a\x99\x99\x99\x99\x19\\@'
tRp21
ssS'time'
p22
(dp23
g8
(lp24
F16.519642114639282
aF18.872281074523926
aF20.79803204536438
aF20.6114821434021
aF30.641479015350342
aF19.655160903930664
aF17.157543897628784
aF24.761983871459961
aF8.7008669376373291
aF22.552276134490967
aF15.30745792388916
aF38.129305124282837
aF14.141317129135132
aF9.7889058589935303
aF22.408514976501465
asg10
g11
(g13
S'w-\x165\xe6\xfc\x1c@'
tRp25
sg15
g11
(g13
S'\xcd\xcc\xcc\x10\xca\x004@'
tRp26
sssS'both'
p27
(dp28
g6
(dp29
g8
(lp30
F36.560000000000002
aF74.049999999999997
aF78.549999999999997
aF72.590000000000003
aF78.760000000000005
aF74.420000000000002
aF75.840000000000003
aF23.059999999999999
aF9.9600000000000009
aF75.549999999999997
aF59.329999999999998
aF67.959999999999994
aF51.600000000000001
aF65.689999999999998
aF75.530000000000001
asg10
g11
(g13
S'\xcc\x10U\xbc\xde\xe64@'
tRp31
sg15
g11
(g13
S'\xc6\x92_,\xf9\xa5N@'
tRp32
ssg17
(dp33
g8
(lp34
I69
aI142
aI243
aI258
aI241
aI177
aI137
aI54
aI56
aI182
aI113
aI144
aI125
aI172
aI236
asg10
g11
(g13
S'=\xeeB\xe4\x1ecP@'
tRp35
sg15
g11
(g13
S'33333\x93c@'
tRp36
ssg22
(dp37
g8
(lp38
F15.101820945739746
aF27.311969041824341
aF49.050960063934326
aF52.392729997634888
aF47.056210994720459
aF31.440464019775391
aF25.901355981826782
aF12.013563871383667
aF9.4486069679260254
aF37.407953977584839
aF22.033814907073975
aF28.683859825134277
aF28.70163893699646
aF34.202996015548706
aF43.404191017150879
asg10
g11
(g13
S'\r\x04H\xc0\x12\x96)@'
tRp39
sg15
g11
(g13
S'\xcd\xcc\xcc\xa0\x87\xf1>@'
tRp40
sssS'none'
p41
(dp42
g6
(dp43
g8
(lp44
F65.489999999999995
aF71.959999999999994
aF75.340000000000003
aF49.399999999999999
aF66.730000000000004
aF80.219999999999999
aF68.439999999999998
aF18.530000000000001
aF67.069999999999993
aF35.200000000000003
aF61.259999999999998
aF73.849999999999994
aF67.599999999999994
aF65.980000000000004
aF65.269999999999996
asg10
g11
(g13
S"\x18r~h'O/@"
tRp45
sg15
g11
(g13
S'\x89\x16\xd9\xce\xf7\x13O@'
tRp46
ssg17
(dp47
g8
(lp48
I119
aI112
aI128
aI123
aI193
aI74
aI63
aI57
aI105
aI55
aI218
aI107
aI77
aI254
aI103
asg10
g11
(g13
S'\xc6]\xbe\xa6\xe5\x9bL@'
tRp49
sg15
g11
(g13
S'\xcd\xcc\xcc\xcc\xcc\xcc]@'
tRp50
ssg22
(dp51
g8
(lp52
F19.895685911178589
aF18.619359016418457
aF20.979805946350098
aF21.378595113754272
aF44.615187883377075
aF12.868216037750244
aF11.285968065261841
aF11.835803031921387
aF18.646908044815063
aF9.9928100109100342
aF35.737380027770996
aF18.172189950942993
aF16.018182992935181
aF42.628048896789551
aF16.682711124420166
asg10
g11
(g13
S'\x07\x83\x1e\x9a\x01\x1c%@'
tRp53
sg15
g11
(g13
S'\x89\x88\x88`[J5@'
tRp54
ssssS'bfgs'
p55
(dp56
g4
(dp57
g6
(dp58
g8
(lp59
F77.819999999999993
aF80.900000000000006
aF76.450000000000003
aF80.450000000000003
aF78.370000000000005
aF80.859999999999999
aF78.230000000000004
aF79.450000000000003
aF76
aF82.75
aF77.560000000000002
aF78.980000000000004
aF79.209999999999994
aF79.590000000000003
aF76.060000000000002
asg10
g11
(g13
S'\x13\xa7{\xec\xab\xcf\xfd?'
tRp60
sg15
g11
(g13
S'\xa98\xfb\xf0\x19\xb6S@'
tRp61
ssg17
(dp62
g8
(lp63
I292
aI256
aI162
aI324
aI163
aI350
aI471
aI205
aI600
aI499
aI475
aI252
aI222
aI455
aI154
asg10
g11
(g13
S':b*^\xa2>a@'
tRp64
sg15
g11
(g13
S'UUUUUUt@'
tRp65
ssg22
(dp66
g8
(lp67
F56.511445045471191
aF46.785351037979126
aF26.137691020965576
aF64.106027841567993
aF21.814400196075439
aF72.056220054626465
aF108.59521794319153
aF29.553196907043457
aF165.72957301139832
aF126.72919392585754
aF111.52823781967163
aF42.756489992141724
aF34.475314855575562
aF103.77733397483826
aF20.212724924087524
asg10
g11
(g13
S'\x9fMu1$\x8aE@'
tRp68
sg15
g11
(g13
S'\x11\x11\x11\xfc\xf1-Q@'
tRp69
sssg27
(dp70
g6
(dp71
g8
(lp72
F84.370000000000005
aF85.569999999999993
aF81.379999999999995
aF84.709999999999994
aF85.790000000000006
aF85.730000000000004
aF82.170000000000002
aF81.769999999999996
aF81.329999999999998
aF79.920000000000002
aF81.609999999999999
aF82.950000000000003
aF77.760000000000005
aF83.319999999999993
aF86.329999999999998
asg10
g11
(g13
S'G\xef8\xbc\xbd\xf7\x02@'
tRp73
sg15
g11
(g13
S'\x15g\x1f>\xc3\xbeT@'
tRp74
ssg17
(dp75
g8
(lp76
I331
aI510
aI226
aI470
aI447
aI433
aI203
aI355
aI206
aI270
aI235
aI489
aI152
aI230
aI637
asg10
g11
(g13
S'(y\xb2\xe1\x9fZa@'
tRp77
sg15
g11
(g13
S'DDDDD\xa4u@'
tRp78
ssg22
(dp79
g8
(lp80
F72.86192798614502
aF139.2098548412323
aF37.992020130157471
aF123.62735199928284
aF126.2123429775238
aF107.53740811347961
aF34.203746795654297
aF76.090705156326294
aF34.540798187255859
aF53.437612056732178
aF40.186212062835693
aF123.63451504707336
aF23.273216962814331
aF41.894362926483154
aF214.66693305969238
asg10
g11
(g13
S'\x8f\xb7\x93\xdc\x05/J@'
tRp81
sg15
g11
(g13
S'DDD\x1f\xa4\xd2T@'
tRp82
sssg41
(dp83
g6
(dp84
g8
(lp85
F88
aF89.810000000000002
aF86.870000000000005
aF85.420000000000002
aF87.319999999999993
aF85.659999999999997
aF86.329999999999998
aF85.620000000000005
aF86.150000000000006
aF88.090000000000003
aF84.650000000000006
aF85.469999999999999
aF87.849999999999994
aF85.409999999999997
aF87.299999999999997
asg10
g11
(g13
S'\t\x06bY\x00\x7f\xf5?'
tRp86
sg15
g11
(g13
S'\xda@\xa7\rt\xaaU@'
tRp87
ssg17
(dp88
g8
(lp89
I286
aI829
aI237
aI279
aI279
aI138
aI135
aI220
aI383
aI294
aI194
aI386
aI318
aI190
aI361
asg10
g11
(g13
S'M\xe3M\x9c\xfe\x0fd@'
tRp90
sg15
g11
(g13
S'\xef\xee\xee\xee\xee\xder@'
tRp91
ssg22
(dp92
g8
(lp93
F49.473502159118652
aF354.69902801513672
aF40.256627798080444
aF52.242779970169067
aF48.78578519821167
aF22.773074150085449
aF18.400880098342896
aF38.240032911300659
aF96.29824686050415
aF56.782088994979858
aF31.300144910812378
aF87.247035980224609
aF67.160104990005493
aF29.671366930007935
aF80.588541030883789
asg10
g11
(g13
S'\xe0\xf9\xfc\x7f\x17\xbaS@'
tRp94
sg15
g11
(g13
S'DDD0\x0e\xe6Q@'
tRp95
ssssS'gd'
p96
(dp97
g4
(dp98
g6
(dp99
g8
(lp100
F82.310000000000002
aF77.030000000000001
aF83.159999999999997
aF82.950000000000003
aF79.290000000000006
aF79.269999999999996
aF80.090000000000003
aF77.439999999999998
aF80.700000000000003
aF82.599999999999994
aF79.799999999999997
aF79.849999999999994
aF81.879999999999995
aF76.930000000000007
aF80.480000000000004
asg10
g11
(g13
S'\xfa*AZ\x8d\xff\xff?'
tRp101
sg15
g11
(g13
S'\xe4\xa5\x9b\xc4 \x10T@'
tRp102
ssg17
(dp103
g8
(lp104
I669
aI344
aI775
aI961
aI366
aI464
aI514
aI478
aI592
aI631
aI212
aI293
aI569
aI427
aI528
asg10
g11
(g13
S'X6\xf2\x8a\xe80g@'
tRp105
sg15
g11
(g13
S'DDDDDL\x80@'
tRp106
ssg22
(dp107
g8
(lp108
F66.317162990570068
aF34.213082075119019
aF73.599634885787964
aF91.182198047637939
aF36.717822074890137
aF44.591740131378174
aF49.07594895362854
aF45.496273040771484
aF58.805476188659668
aF59.561327934265137
aF21.164811849594116
aF28.793327808380127
aF54.44150710105896
aF41.051532983779907
aF50.482800006866455
asg10
g11
(g13
S'\xe7]5\x05]g1@'
tRp109
sg15
g11
(g13
S'\xcd\xcc\xcc<\xe3.I@'
tRp110
sssg27
(dp111
g6
(dp112
g8
(lp113
F82.879999999999995
aF85.469999999999999
aF82.5
aF84.129999999999995
aF80.810000000000002
aF81
aF84.459999999999994
aF83.840000000000003
aF85.140000000000001
aF84.980000000000004
aF82.159999999999997
aF84.549999999999997
aF85.620000000000005
aF84.739999999999995
aF85.670000000000002
asg10
g11
(g13
S'/{\x16\xce\x03\t\xf9?'
tRp114
sg15
g11
(g13
S'\xa7\rt\xda@\xf7T@'
tRp115
ssg17
(dp116
g8
(lp117
I399
aI980
aI380
aI597
aI401
aI331
aI580
aI704
aI666
aI661
aI542
aI546
aI695
aI590
aI639
asg10
g11
(g13
S'\xf2\xf7\x9b`1\xc9c@'
tRp118
sg15
g11
(g13
S'\xde\xdd\xdd\xdd\xdd%\x82@'
tRp119
ssg22
(dp120
g8
(lp121
F47.854220151901245
aF101.18189811706543
aF44.788393974304199
aF63.348795890808105
aF43.526148080825806
aF37.542191982269287
aF58.644099950790405
aF69.602445125579834
aF66.006249904632568
aF65.487296104431152
aF55.217455148696899
aF55.222689151763916
aF70.303079843521118
aF60.483066082000732
aF65.259186029434204
asg10
g11
(g13
S'\t\x03ES\xc66-@'
tRp122
sg15
g11
(g13
S'\x00\x00\x00\xc8\x1e&N@'
tRp123
sssg41
(dp124
g6
(dp125
g8
(lp126
F81.620000000000005
aF86.659999999999997
aF87
aF87.390000000000001
aF86.489999999999995
aF90.120000000000005
aF89.420000000000002
aF87.540000000000006
aF87.530000000000001
aF87.579999999999998
aF88.900000000000006
aF87.109999999999999
aF88.549999999999997
aF88.120000000000005
aF87.159999999999997
asg10
g11
(g13
S"'\xae\x85\x81\x0bl\xfd?"
tRp127
sg15
g11
(g13
S'\xe3^s!i\xdaU@'
tRp128
ssg17
(dp129
g8
(lp130
I248
aI442
aI542
aI577
aI462
aI1009
aI667
aI665
aI610
aI560
aI667
aI650
aI912
aI606
aI538
asg10
g11
(g13
S'\xc9\x99\xfa[\x12\xcce@'
tRp131
sg15
g11
(g13
S'\xab\xaa\xaa\xaa\xaa\x12\x83@'
tRp132
ssg22
(dp133
g8
(lp134
F25.111545085906982
aF44.387146949768066
aF56.776242971420288
aF56.04897403717041
aF47.224809885025024
aF94.06426215171814
aF63.978453874588013
aF67.685727119445801
aF60.547652006149292
aF53.621863126754761
aF64.14486289024353
aF62.7847740650177
aF87.548440933227539
aF60.450047016143799
aF52.804002046585083
asg10
g11
(g13
S'\xefBh\xd9\x15\xac/@'
tRp135
sg15
g11
(g13
S'\xef\xee\xee\x00\xed\xe7M@'
tRp136
ssssS'cg'
p137
(dp138
g4
(dp139
g6
(dp140
g8
(lp141
F83.469999999999999
aF82.840000000000003
aF80.450000000000003
aF82.900000000000006
aF84.989999999999995
aF80.950000000000003
aF84.129999999999995
aF81.459999999999994
aF81.450000000000003
aF84.349999999999994
aF84.629999999999995
aF82.299999999999997
aF83.469999999999999
aF84.469999999999999
aF84.359999999999999
asg10
g11
(g13
S'\x04\x9b\xb6y\xc6\xa7\xf6?'
tRp142
sg15
g11
(g13
S'r\xaf\xb9\x904\xc5T@'
tRp143
ssg17
(dp144
g8
(lp145
I518
aI302
aI511
aI326
aI736
aI276
aI508
aI368
aI465
aI791
aI599
aI308
aI497
aI536
aI506
asg10
g11
(g13
S'J\xa5\x0e\x04?Wb@'
tRp146
sg15
g11
(g13
S'"""""2~@'
tRp147
ssg22
(dp148
g8
(lp149
F45.653966188430786
aF26.977472066879272
aF43.412158966064453
aF30.508615970611572
aF57.891561031341553
aF24.05548882484436
aF40.346375942230225
aF29.57004189491272
aF39.055716037750244
aF75.582712888717651
aF50.28243613243103
aF25.713359117507935
aF40.453579902648926
aF43.223482847213745
aF40.295889139175415
asg10
g11
(g13
S'\x87\x9c6wW$*@'
tRp150
sg15
g11
(g13
S'www\xdd oD@'
tRp151
sssg27
(dp152
g6
(dp153
g8
(lp154
F85.400000000000006
aF85.680000000000007
aF85.430000000000007
aF86.340000000000003
aF87.549999999999997
aF88.030000000000001
aF82.939999999999998
aF86.519999999999996
aF86.659999999999997
aF84.719999999999999
aF86.109999999999999
aF83.790000000000006
aF85.629999999999995
aF86.939999999999998
aF84.909999999999997
asg10
g11
(g13
S'\xb4.\xdb\xc2\x94\xdb\xf4?'
tRp155
sg15
g11
(g13
S'\x83N\x1b\xe8\xb4qU@'
tRp156
ssg17
(dp157
g8
(lp158
I340
aI376
aI362
aI453
aI593
aI579
aI292
aI457
aI431
aI373
aI373
aI231
aI484
aI516
aI332
asg10
g11
(g13
S'^\x90\xca\xce]\xb0X@'
tRp159
sg15
g11
(g13
S'\xcd\xcc\xcc\xcc\xcc\xccy@'
tRp160
ssg22
(dp161
g8
(lp162
F30.653888940811157
aF35.684798955917358
aF33.941915035247803
aF41.806941032409668
aF51.757747173309326
aF54.443733930587769
aF25.771431922912598
aF37.573055028915405
aF42.126380920410156
aF35.074682950973511
aF34.877177000045776
aF21.827558040618896
aF41.577148199081421
aF44.539000988006592
aF28.571310043334961
asg10
g11
(g13
S'1` \xc2\x06e!@'
tRp163
sg15
g11
(g13
S'\xbc\xbb\xbb\r\x9a\xacB@'
tRp164
sssg41
(dp165
g6
(dp166
g8
(lp167
F86.780000000000001
aF89.670000000000002
aF88.120000000000005
aF88.950000000000003
aF88.459999999999994
aF87.719999999999999
aF88.540000000000006
aF87.120000000000005
aF89.920000000000002
aF88.390000000000001
aF88.200000000000003
aF88.489999999999995
aF86.900000000000006
aF86.920000000000002
aF87.260000000000005
asg10
g11
(g13
S'&\xfen\xf1\x85N\xee?'
tRp168
sg15
g11
(g13
S'\xa0\x1a/\xdd$\x06V@'
tRp169
ssg17
(dp170
g8
(lp171
I368
aI664
aI415
aI388
aI434
aI333
aI397
aI314
aI665
aI406
aI412
aI433
aI269
aI288
aI342
asg10
g11
(g13
S'b|\x8f\xd4\x82\xf5[@'
tRp172
sg15
g11
(g13
S'\x89\x88\x88\x88\x88\x88y@'
tRp173
ssg22
(dp174
g8
(lp175
F28.547221899032593
aF67.394567012786865
aF37.376033067703247
aF29.897107124328613
aF33.925873041152954
aF26.77326512336731
aF31.659584045410156
aF27.192769050598145
aF59.411638021469116
aF32.579667091369629
aF33.254671096801758
aF35.768538951873779
aF21.132074117660522
aF23.838973999023438
aF33.18175482749939
asg10
g11
(g13
S'\xa7\xd2\x18e\xa2((@'
tRp176
sg15
g11
(g13
S'DDD\xa6\xd5eA@'
tRp177
ssssS'adam'
p178
(dp179
g4
(dp180
g6
(dp181
g8
(lp182
F74.510000000000005
aF79.420000000000002
aF76.859999999999999
aF74.620000000000005
aF78.780000000000001
aF80.329999999999998
aF79.739999999999995
aF74
aF80.090000000000003
aF76.040000000000006
aF80.060000000000002
aF78.260000000000005
aF79.269999999999996
aF78.280000000000001
aF78.359999999999999
asg10
g11
(g13
S'\xe0\x0f\xcc\xd1n\xce\x00@'
tRp183
sg15
g11
(g13
S'&1\x08\xac\x1czS@'
tRp184
ssg17
(dp185
g8
(lp186
I810
aI819
aI1105
aI935
aI1146
aI919
aI1115
aI659
aI791
aI663
aI822
aI1137
aI887
aI1085
aI1190
asg10
g11
(g13
S'\xb4S\xdfJ\xd4\xa1e@'
tRp187
sg15
g11
(g13
S'\xef\xee\xee\xee\xeeV\x8d@'
tRp188
ssg22
(dp189
g8
(lp190
F90.626752853393555
aF90.258898019790649
aF119.78744792938232
aF102.23167896270752
aF123.6798779964447
aF98.683758020401001
aF119.10847592353821
aF71.642782926559448
aF86.055690050125122
aF71.805783033370972
aF88.353148937225342
aF123.0978090763092
aF95.073226928710938
aF116.73514699935913
aF127.8584771156311
asg10
g11
(g13
S'Zv\xbf\xbc\xc5E2@'
tRp191
sg15
g11
(g13
S'fff\x86\xa9jY@'
tRp192
sssg27
(dp193
g6
(dp194
g8
(lp195
F83.25
aF83.909999999999997
aF85.590000000000003
aF83.819999999999993
aF85.969999999999999
aF87.439999999999998
aF87.069999999999993
aF85.939999999999998
aF86.480000000000004
aF85.290000000000006
aF83.709999999999994
aF80.870000000000005
aF82.549999999999997
aF85.930000000000007
aF84.349999999999994
asg10
g11
(g13
S'{/\x86&\xb3\xf5\xfb?'
tRp196
sg15
g11
(g13
S'\x914\xa5\xe2\xec3U@'
tRp197
ssg17
(dp198
g8
(lp199
I622
aI754
aI993
aI657
aI1094
aI1267
aI1201
aI1019
aI1053
aI1026
aI834
aI522
aI628
aI1104
aI755
asg10
g11
(g13
S'\xeb\tcy\x99Al@'
tRp200
sg15
g11
(g13
S'wwwww/\x8c@'
tRp201
ssg22
(dp202
g8
(lp203
F71.260141134262085
aF84.920053958892822
aF109.10160899162292
aF75.960275173187256
aF121.32271790504456
aF138.16441798210144
aF130.93927907943726
aF114.56167483329773
aF115.76365399360657
aF120.23035788536072
aF99.051865100860596
aF62.156900882720947
aF72.51924991607666
aF123.43502712249756
aF85.764230012893677
asg10
g11
(g13
S'B\x83\x88\x8b\x17\x987@'
tRp204
sg15
g11
(g13
S'DDD\x18PkY@'
tRp205
sssg41
(dp206
g6
(dp207
g8
(lp208
F89.239999999999995
aF87.260000000000005
aF87.269999999999996
aF88.739999999999995
aF89.209999999999994
aF88.430000000000007
aF87.400000000000006
aF88.549999999999997
aF89.099999999999994
aF87.609999999999999
aF87.989999999999995
aF88.5
aF86.140000000000001
aF88.980000000000004
aF88.849999999999994
asg10
g11
(g13
S'\x08\xdd0Z\xcf\n\xec?'
tRp209
sg15
g11
(g13
S'\xcb\xa1E\xb6\xf3\rV@'
tRp210
ssg17
(dp211
g8
(lp212
I1197
aI991
aI871
aI1046
aI1206
aI998
aI816
aI1254
aI1175
aI875
aI925
aI1005
aI718
aI1002
aI1055
asg10
g11
(g13
S'Y\xd3I\x16\xaf\x96b@'
tRp213
sg15
g11
(g13
S'wwwww\x87\x8f@'
tRp214
ssg22
(dp215
g8
(lp216
F130.06424498558044
aF108.61506295204163
aF94.830641031265259
aF112.86397504806519
aF129.21588706970215
aF110.47411108016968
aF92.33952784538269
aF137.84027194976807
aF129.56383013725281
aF95.572147130966187
aF100.69244694709778
aF108.1179518699646
aF80.158288955688477
aF110.36386489868164
aF111.72995781898499
asg10
g11
(g13
S'8\xe8\xfb\xa2\x86L/@'
tRp217
sg15
g11
(g13
S'UUU\x8bk\x8a[@'
tRp218
ssss.