(lp1
F8.5399999999999991
aF10.16
aF11.26
aF25.219999999999999
aF33.5
aF46.32
aF51.399999999999999
aF54.420000000000002
aF55.719999999999999
aF56.100000000000001
aF57.82
aF59
aF59.799999999999997
aF61.560000000000002
aF62.5
aF63.380000000000003
aF65.219999999999999
aF64.620000000000005
aF65.340000000000003
aF65.200000000000003
aF67.180000000000007
aF66.980000000000004
aF67.780000000000001
aF68.599999999999994
aF69.219999999999999
aF69.620000000000005
aF70.280000000000001
aF70.480000000000004
aF71
aF71.260000000000005
aF71.579999999999998
aF72.079999999999998
aF72.120000000000005
aF72.359999999999999
aF72.420000000000002
aF73.019999999999996
aF72.879999999999995
aF72.620000000000005
aF72.859999999999999
aF73.099999999999994
aF73.420000000000002
aF73.680000000000007
aF73.099999999999994
aF73.319999999999993
aF73.560000000000002
aF72.920000000000002
aF72.879999999999995
aF73.239999999999995
aF73.140000000000001
aF73.700000000000003
aF74.280000000000001
aF74
aF74.439999999999998
aF74.480000000000004
aF75.159999999999997
aF75.5
aF75.719999999999999
aF75.939999999999998
aF76.200000000000003
aF75.760000000000005
aF76.239999999999995
aF76.180000000000007
aF76.480000000000004
aF76.180000000000007
aF75.780000000000001
aF76.120000000000005
aF76.219999999999999
aF75.980000000000004
aF76.099999999999994
aF76.120000000000005
aF76.219999999999999
aF76.739999999999995
aF76.760000000000005
aF76.5
aF76.099999999999994
aF75.680000000000007
aF75.760000000000005
aF76.140000000000001
aF76.340000000000003
aF76.640000000000001
aF76.239999999999995
aF76.640000000000001
aF76.879999999999995
aF77.359999999999999
aF77.019999999999996
aF77.439999999999998
aF77.319999999999993
aF77.159999999999997
aF77.239999999999995
aF77.219999999999999
aF77.560000000000002
aF77.599999999999994
aF77.540000000000006
aF77.719999999999999
aF77.739999999999995
aF77.879999999999995
aF78.180000000000007
aF77.439999999999998
aF77.859999999999999
aF78.239999999999995
aF78.180000000000007
aF77.719999999999999
aF77.640000000000001
aF78
aF78.280000000000001
aF78.319999999999993
aF77.700000000000003
aF77.540000000000006
aF78.340000000000003
aF78.459999999999994
aF78.260000000000005
aF78.379999999999995
aF78.540000000000006
aF78.680000000000007
aF78.659999999999997
aF79.140000000000001
aF78.920000000000002
aF78.780000000000001
aF79.019999999999996
aF78.799999999999997
aF78.819999999999993
aF78.900000000000006
aF78.780000000000001
aF79.040000000000006
aF79.359999999999999
aF79.120000000000005
aF78.920000000000002
aF78.819999999999993
aF78.840000000000003
aF79.219999999999999
aF78.799999999999997
aF78.900000000000006
aF79.120000000000005
aF79.379999999999995
aF78.879999999999995
aF79.140000000000001
aF79.079999999999998
aF79.019999999999996
aF79.040000000000006
aF79.560000000000002
aF79.599999999999994
aF79.659999999999997
aF79.180000000000007
aF79.840000000000003
aF80.099999999999994
aF79.959999999999994
aF79.980000000000004
aF79.019999999999996
aF78.859999999999999
aF79.719999999999999
aF80.180000000000007
aF79.760000000000005
aF80
aF80.379999999999995
aF80.040000000000006
aF80.040000000000006
aF80.379999999999995
aF80.140000000000001
aF80.239999999999995
aF80.159999999999997
aF80.340000000000003
aF80.519999999999996
aF80.599999999999994
aF80.359999999999999
aF80.239999999999995
aF80.140000000000001
aF80.480000000000004
aF80.420000000000002
aF80.659999999999997
aF80.5
aF80.239999999999995
aF79.900000000000006
aF79.579999999999998
aF80.519999999999996
aF80.340000000000003
aF80.319999999999993
aF80.400000000000006
aF80
aF79.760000000000005
aF80.140000000000001
aF80.5
aF79.980000000000004
aF80
aF80.379999999999995
aF79.379999999999995
aF80.280000000000001
aF80.120000000000005
aF80.640000000000001
aF81.260000000000005
aF80.719999999999999
aF80.819999999999993
aF80.879999999999995
aF81.299999999999997
aF81.640000000000001
aF81.640000000000001
aF81.739999999999995
aF81.659999999999997
aF81.700000000000003
aF81.299999999999997
aF81.659999999999997
aF81.700000000000003
aF80.879999999999995
aF81.459999999999994
aF81.180000000000007
aF82.219999999999999
aF82.060000000000002
aF82.420000000000002
aF82.140000000000001
aF81.920000000000002
aF81.620000000000005
aF81.819999999999993
aF81.719999999999999
aF82.340000000000003
aF82.280000000000001
aF81.459999999999994
aF82.420000000000002
aF82.760000000000005
aF82.659999999999997
aF82.200000000000003
aF82.680000000000007
aF82.739999999999995
aF82.719999999999999
aF82.700000000000003
aF82.340000000000003
aF82.459999999999994
aF82.920000000000002
aF82.680000000000007
aF83.140000000000001
aF82.640000000000001
aF83.099999999999994
aF83.079999999999998
aF82.879999999999995
aF82.920000000000002
aF83.079999999999998
aF82.120000000000005
aF82.319999999999993
aF82.140000000000001
aF81.980000000000004
aF82.260000000000005
aF82.180000000000007
aF82.340000000000003
aF82.120000000000005
aF81.780000000000001
aF81.219999999999999
aF82.079999999999998
aF81.859999999999999
aF81.920000000000002
aF81.620000000000005
aF82.180000000000007
aF82.540000000000006
aF82.859999999999999
aF82.659999999999997
aF82.859999999999999
aF82.620000000000005
aF82.920000000000002
aF82.859999999999999
aF82.879999999999995
aF82.900000000000006
aF82.620000000000005
aF82.519999999999996
aF82.719999999999999
aF82.819999999999993
aF82.959999999999994
aF82.659999999999997
aF82.920000000000002
aF83.060000000000002
aF83.180000000000007
aF83.459999999999994
aF82.680000000000007
aF83.319999999999993
aF83.340000000000003
aF83.840000000000003
aF83.680000000000007
aF83.579999999999998
aF83.159999999999997
aF82.859999999999999
aF82.900000000000006
aF83.019999999999996
aF83.299999999999997
aF83.459999999999994
aF83.140000000000001
aF83.079999999999998
aF83.299999999999997
aF83.620000000000005
aF83.439999999999998
aF83.959999999999994
aF83.480000000000004
aF83.700000000000003
aF83.879999999999995
aF82.980000000000004
aF83.180000000000007
aF83.099999999999994
aF82.939999999999998
aF82.959999999999994
aF82.840000000000003
aF82.920000000000002
aF83.099999999999994
aF83.019999999999996
aF83.260000000000005
aF83.459999999999994
aF83.959999999999994
aF84.079999999999998
aF83.959999999999994
aF83.760000000000005
aF83.159999999999997
aF83.579999999999998
aF83.159999999999997
aF83.079999999999998
aF82.900000000000006
aF83.719999999999999
aF83.939999999999998
aF83.760000000000005
aF83.299999999999997
aF83.799999999999997
aF83.640000000000001
aF83.680000000000007
aF83.659999999999997
aF83.219999999999999
aF83.140000000000001
aF82.319999999999993
aF82.879999999999995
aF82.879999999999995
aF82.900000000000006
aF82.480000000000004
aF83.280000000000001
aF83.840000000000003
aF83.659999999999997
aF83.379999999999995
aF83.879999999999995
aF84.079999999999998
aF84.180000000000007
aF83.719999999999999
aF83.620000000000005
aF84.099999999999994
aF84.219999999999999
aF84.140000000000001
aF84.299999999999997
aF84.219999999999999
aF84.140000000000001
aF83.579999999999998
aF84.640000000000001
aF84.799999999999997
aF84.540000000000006
aF84.459999999999994
aF84.340000000000003
aF84.640000000000001
aF84.680000000000007
aF84.560000000000002
aF84.680000000000007
aF84.560000000000002
aF84.120000000000005
aF84.840000000000003
aF84.799999999999997
aF84.760000000000005
aF84.680000000000007
aF84.680000000000007
aF84.599999999999994
aF84.620000000000005
aF84.620000000000005
aF84.739999999999995
aF84.400000000000006
aF84.780000000000001
aF83.920000000000002
aF84.980000000000004
aF84.680000000000007
aF85.099999999999994
aF84.700000000000003
aF84.5
aF84.400000000000006
aF84.640000000000001
aF85.099999999999994
aF85.019999999999996
aF84.620000000000005
aF84.540000000000006
aF84.599999999999994
aF84.480000000000004
aF84.859999999999999
aF84.700000000000003
aF84.879999999999995
aF85.079999999999998
aF84.959999999999994
aF85.260000000000005
aF85.319999999999993
aF85.340000000000003
aF85.939999999999998
aF85.659999999999997
aF85.5
aF85.480000000000004
aF84.920000000000002
aF84.560000000000002
aF84.780000000000001
aF85.060000000000002
aF85.540000000000006
aF85.840000000000003
aF85.939999999999998
aF85.299999999999997
aF85.120000000000005
aF85.180000000000007
aF85.180000000000007
aF84.599999999999994
aF85.379999999999995
aF85.620000000000005
aF85.680000000000007
aF85.480000000000004
aF85.519999999999996
aF85.420000000000002
aF85.640000000000001
aF85.819999999999993
aF85.780000000000001
aF85.439999999999998
aF86.099999999999994
aF86.159999999999997
aF85.879999999999995
aF85.659999999999997
aF85.700000000000003
aF85.340000000000003
aF85.920000000000002
aF85.299999999999997
aF85.980000000000004
aF85.859999999999999
aF85.879999999999995
aF85.180000000000007
aF84.780000000000001
aF84.859999999999999
aF85.040000000000006
aF85.099999999999994
aF84.959999999999994
aF85.099999999999994
aF85.760000000000005
aF85.480000000000004
aF85.819999999999993
aF86
aF85.980000000000004
aF85.799999999999997
aF85.840000000000003
aF85.640000000000001
aF85.420000000000002
aF85.480000000000004
aF85.640000000000001
aF85.560000000000002
aF85.319999999999993
aF85.680000000000007
aF85.859999999999999
aF85.799999999999997
aF85.780000000000001
aF86.060000000000002
aF86.280000000000001
aF86.439999999999998
aF86.280000000000001
aF86.400000000000006
aF86.400000000000006
aF85.980000000000004
aF86
aF86.439999999999998
aF86.560000000000002
aF86.299999999999997
aF86.340000000000003
aF86.319999999999993
aF86.040000000000006
aF85.939999999999998
aF85.739999999999995
aF85.540000000000006
aF85.739999999999995
aF86.099999999999994
aF86.180000000000007
aF85.920000000000002
aF86.280000000000001
aF86.040000000000006
aF86.060000000000002
aF85.900000000000006
aF86.180000000000007
aF86.200000000000003
aF85.920000000000002
aF86.099999999999994
aF85.420000000000002
aF85.540000000000006
aF85.920000000000002
aF86.319999999999993
aF86.299999999999997
aF86.659999999999997
aF86.939999999999998
aF86.519999999999996
aF86.340000000000003
aF86.480000000000004
aF86.319999999999993
aF86.140000000000001
aF86.379999999999995
aF86.379999999999995
aF86.760000000000005
aF86.920000000000002
aF86.739999999999995
aF86.900000000000006
aF86.540000000000006
aF86.959999999999994
aF86.640000000000001
aF86.299999999999997
aF85.959999999999994
aF85.700000000000003
aF86.659999999999997
aF85.959999999999994
a.