(lp1
F11.9
aF39.520000000000003
aF60.380000000000003
aF51.280000000000001
aF59.560000000000002
aF68.879999999999995
aF65.799999999999997
aF73.560000000000002
aF77.680000000000007
aF63.159999999999997
aF76.959999999999994
aF77.180000000000007
aF73.180000000000007
aF64.519999999999996
aF73.379999999999995
aF67.920000000000002
aF74.760000000000005
aF72.939999999999998
aF73.400000000000006
aF71.159999999999997
aF76.519999999999996
aF76.760000000000005
aF79.099999999999994
aF76.579999999999998
aF73.200000000000003
aF75.239999999999995
aF74.200000000000003
aF70.280000000000001
aF76.079999999999998
aF77.060000000000002
aF77.760000000000005
aF78.400000000000006
aF77.359999999999999
aF73.640000000000001
aF71.180000000000007
aF73.900000000000006
aF73.640000000000001
aF71.920000000000002
aF74.420000000000002
aF71.760000000000005
aF75.319999999999993
aF76.280000000000001
aF73.260000000000005
aF73.620000000000005
aF75.939999999999998
aF76.739999999999995
aF77.439999999999998
aF77.640000000000001
aF77.219999999999999
aF76.420000000000002
aF72.200000000000003
aF75.560000000000002
aF54.240000000000002
aF77.319999999999993
aF71.200000000000003
aF69
aF74.260000000000005
aF70.420000000000002
aF74.060000000000002
aF75.260000000000005
aF72.599999999999994
aF71.299999999999997
aF75.620000000000005
aF72.5
aF66.299999999999997
aF76.840000000000003
aF76.260000000000005
aF76.859999999999999
aF78.659999999999997
aF77.280000000000001
aF77.439999999999998
aF79.140000000000001
aF78.099999999999994
aF82.180000000000007
aF80.819999999999993
aF81.920000000000002
aF78.640000000000001
aF76.180000000000007
aF76.459999999999994
aF81.060000000000002
aF80.620000000000005
aF79.019999999999996
aF80.060000000000002
aF77.780000000000001
aF78.140000000000001
aF81.140000000000001
aF80.640000000000001
aF76.859999999999999
aF76.879999999999995
aF77.700000000000003
aF79.200000000000003
aF79.799999999999997
aF69.659999999999997
aF74.620000000000005
aF75.920000000000002
aF75.439999999999998
aF78.439999999999998
aF70.760000000000005
aF75.480000000000004
aF72.859999999999999
aF73.540000000000006
aF74.140000000000001
aF79.659999999999997
aF80.099999999999994
aF81.340000000000003
aF79.239999999999995
aF73.439999999999998
aF76.280000000000001
aF77.879999999999995
aF79.879999999999995
aF79.599999999999994
aF79.140000000000001
aF74.959999999999994
aF78.159999999999997
aF75.640000000000001
aF71.319999999999993
aF78.200000000000003
aF78.040000000000006
aF78.400000000000006
aF78.900000000000006
aF78.439999999999998
aF37.079999999999998
aF67.379999999999995
aF70.120000000000005
aF76.260000000000005
aF76.099999999999994
aF75.620000000000005
aF78.959999999999994
aF80.299999999999997
aF80.5
aF78.799999999999997
aF78.299999999999997
aF77.980000000000004
aF78
aF79.959999999999994
aF81.079999999999998
aF81.340000000000003
aF11.06
aF35.859999999999999
aF65.019999999999996
aF55.740000000000002
aF57
aF48.659999999999997
aF65.060000000000002
aF67.980000000000004
aF65.060000000000002
aF63.240000000000002
aF66.5
aF65.640000000000001
aF63.399999999999999
aF67.099999999999994
aF69.459999999999994
aF59.700000000000003
aF64.859999999999999
aF66.340000000000003
aF64.859999999999999
aF70.620000000000005
aF73.219999999999999
aF74.780000000000001
aF71.680000000000007
aF70.159999999999997
aF59.619999999999997
aF57.219999999999999
aF56.119999999999997
aF51.359999999999999
aF56.259999999999998
aF59.579999999999998
aF18.48
aF49.200000000000003
aF54.259999999999998
aF56.719999999999999
aF62.799999999999997
aF65.120000000000005
aF64.239999999999995
aF65.760000000000005
aF69.180000000000007
aF66.439999999999998
aF59.219999999999999
aF67
aF66.280000000000001
aF61.899999999999999
aF66.439999999999998
aF67.840000000000003
aF67.420000000000002
aF66.920000000000002
aF65.700000000000003
aF60.700000000000003
aF67.219999999999999
aF67.599999999999994
aF64.200000000000003
aF62.280000000000001
aF67.900000000000006
aF63.960000000000001
aF68.319999999999993
aF56.68
aF69.079999999999998
aF63.460000000000001
aF68.680000000000007
aF69.959999999999994
aF67.980000000000004
aF60.479999999999997
aF67.019999999999996
aF57.159999999999997
aF61.299999999999997
aF62.979999999999997
aF65.140000000000001
aF65.739999999999995
aF64.799999999999997
aF57.759999999999998
aF60.020000000000003
aF60.979999999999997
aF60.240000000000002
aF57.119999999999997
aF56.899999999999999
aF56.560000000000002
aF59.219999999999999
aF55.479999999999997
aF58.479999999999997
aF57.840000000000003
aF57.579999999999998
aF62.020000000000003
aF61.280000000000001
aF63.68
aF65.760000000000005
aF50.799999999999997
aF56.939999999999998
aF56.060000000000002
aF64.939999999999998
aF66
aF69.620000000000005
aF60.939999999999998
aF62.560000000000002
aF62.619999999999997
aF66.079999999999998
aF68.540000000000006
aF64.180000000000007
aF65.219999999999999
aF69.560000000000002
aF67.579999999999998
aF64.980000000000004
aF63.579999999999998
aF61.740000000000002
aF62.600000000000001
aF67.5
aF66.439999999999998
aF65.219999999999999
aF57.340000000000003
aF55.899999999999999
aF63.579999999999998
aF60.799999999999997
aF63.259999999999998
aF60.460000000000001
aF60.18
aF61.240000000000002
aF64.900000000000006
aF57.340000000000003
aF60.960000000000001
aF59.880000000000003
aF65.480000000000004
aF66.859999999999999
aF67.019999999999996
aF65.260000000000005
aF65.480000000000004
aF66.560000000000002
aF68.620000000000005
aF68.719999999999999
aF71.280000000000001
aF71.359999999999999
aF59.100000000000001
aF68.120000000000005
aF66.019999999999996
aF59.5
aF57.619999999999997
aF55.359999999999999
aF54.420000000000002
aF57.719999999999999
aF60.659999999999997
aF54.740000000000002
aF56.359999999999999
aF55.659999999999997
aF55.18
aF53.060000000000002
aF58.200000000000003
aF60.780000000000001
aF60.020000000000003
aF59.439999999999998
aF53.299999999999997
aF50.420000000000002
aF47
aF56.439999999999998
aF52.939999999999998
aF58.039999999999999
aF53.159999999999997
aF54.259999999999998
aF53.899999999999999
aF58.060000000000002
aF59.740000000000002
aF59.100000000000001
aF56.740000000000002
aF58.460000000000001
aF56.32
aF54.060000000000002
aF57.200000000000003
aF61.939999999999998
aF60.979999999999997
aF61.259999999999998
aF62.579999999999998
aF63.020000000000003
aF58.740000000000002
aF63.939999999999998
aF67.019999999999996
aF67.400000000000006
aF69.640000000000001
aF68.680000000000007
aF60.439999999999998
aF65.599999999999994
aF66.480000000000004
aF63.880000000000003
aF65.700000000000003
aF61.899999999999999
aF65.200000000000003
aF64.920000000000002
aF59.68
aF49.539999999999999
aF57.740000000000002
aF62.159999999999997
aF63.140000000000001
aF56.659999999999997
aF62.380000000000003
aF59
aF56.060000000000002
aF64.099999999999994
aF56.5
aF57.880000000000003
aF58.740000000000002
aF59.100000000000001
aF62.520000000000003
aF64.939999999999998
aF56.759999999999998
aF64.859999999999999
aF66.640000000000001
aF66.680000000000007
aF65.299999999999997
aF61.719999999999999
aF65.799999999999997
aF68.159999999999997
aF67.120000000000005
aF67.560000000000002
aF68.879999999999995
aF70.299999999999997
aF66.040000000000006
aF72.819999999999993
aF72.340000000000003
aF71.560000000000002
aF65.540000000000006
aF60.520000000000003
aF62.380000000000003
aF67.840000000000003
aF65.260000000000005
aF66.280000000000001
aF62
aF64.659999999999997
aF59.340000000000003
aF56.539999999999999
aF61.280000000000001
aF59.359999999999999
aF61.020000000000003
aF46.979999999999997
aF54.420000000000002
aF57.700000000000003
aF53.420000000000002
aF60.280000000000001
aF54.700000000000003
aF59.039999999999999
aF59.479999999999997
aF60.259999999999998
aF63.939999999999998
aF59.32
aF64.200000000000003
aF65.579999999999998
aF59.159999999999997
aF55.479999999999997
aF60.640000000000001
aF56.880000000000003
aF51.799999999999997
aF58.100000000000001
aF50.780000000000001
aF59.060000000000002
aF58.18
aF60.259999999999998
aF54.840000000000003
aF59.060000000000002
aF58.140000000000001
aF57.240000000000002
aF60.579999999999998
aF61.060000000000002
aF61.479999999999997
aF61.719999999999999
aF57.159999999999997
aF60.240000000000002
aF62.799999999999997
aF53.479999999999997
aF59.920000000000002
aF57.560000000000002
aF59.880000000000003
aF60.240000000000002
aF60.579999999999998
aF60.32
aF59.259999999999998
aF54.259999999999998
aF56.920000000000002
aF61.520000000000003
aF59
aF63.200000000000003
aF62.579999999999998
aF62.380000000000003
aF55.799999999999997
aF56.539999999999999
aF59.140000000000001
aF56.640000000000001
aF61.5
aF61.640000000000001
aF62.020000000000003
aF55.18
aF51.439999999999998
aF50.840000000000003
aF51.939999999999998
aF52.340000000000003
aF52.799999999999997
aF53
aF55.899999999999999
aF49.100000000000001
aF47.920000000000002
aF54.539999999999999
aF50.700000000000003
aF51.420000000000002
aF47.219999999999999
aF50.259999999999998
aF52.759999999999998
aF54.420000000000002
aF48.659999999999997
aF60.859999999999999
aF55.520000000000003
aF44.939999999999998
aF56.140000000000001
aF50.619999999999997
aF10.02
aF15.460000000000001
aF26.98
aF23.199999999999999
aF32.32
aF32.82
aF34.560000000000002
aF32.640000000000001
aF35.960000000000001
aF38.32
aF40.759999999999998
aF39.200000000000003
aF41.280000000000001
aF37.280000000000001
aF41.600000000000001
aF46.640000000000001
aF47.299999999999997
aF48.060000000000002
aF39.939999999999998
aF48.380000000000003
aF56.939999999999998
aF57.020000000000003
aF56.380000000000003
aF46.899999999999999
aF28.940000000000001
aF35.140000000000001
aF38.380000000000003
aF34.340000000000003
aF38.979999999999997
aF40.280000000000001
aF37.920000000000002
aF38.740000000000002
aF41.039999999999999
aF42.200000000000003
aF43.920000000000002
aF42.82
aF44.719999999999999
aF48.32
aF47.200000000000003
aF45
aF48.859999999999999
aF48.5
aF50.939999999999998
aF54.700000000000003
aF55.240000000000002
aF55.619999999999997
aF53.759999999999998
aF51.640000000000001
aF53.68
aF45.560000000000002
aF45.439999999999998
aF44.399999999999999
aF46.200000000000003
aF46.82
a.