(lp1
F11.960000000000001
aF16.68
aF16.640000000000001
aF26.800000000000001
aF32.119999999999997
aF44.640000000000001
aF55.859999999999999
aF60.119999999999997
aF61.619999999999997
aF61.560000000000002
aF63.640000000000001
aF66.200000000000003
aF66.700000000000003
aF68.340000000000003
aF68.819999999999993
aF70.379999999999995
aF71.019999999999996
aF71.879999999999995
aF73.439999999999998
aF73.760000000000005
aF74.379999999999995
aF74.840000000000003
aF75.299999999999997
aF76.120000000000005
aF75.819999999999993
aF77.040000000000006
aF77.859999999999999
aF76.680000000000007
aF78.879999999999995
aF79.180000000000007
aF79.900000000000006
aF80.060000000000002
aF80.900000000000006
aF81.040000000000006
aF81.420000000000002
aF81.680000000000007
aF81.859999999999999
aF82.340000000000003
aF82.519999999999996
aF82.359999999999999
aF81.739999999999995
aF81.319999999999993
aF82.760000000000005
aF83.079999999999998
aF83.239999999999995
aF83.379999999999995
aF83.540000000000006
aF83.299999999999997
aF83.599999999999994
aF83.760000000000005
aF83.900000000000006
aF83.959999999999994
aF84.099999999999994
aF83.959999999999994
aF84.359999999999999
aF83.879999999999995
aF82.439999999999998
aF83.959999999999994
aF84.180000000000007
aF84.659999999999997
aF84.719999999999999
aF84.840000000000003
aF84.579999999999998
aF84.939999999999998
aF85.340000000000003
aF84.859999999999999
aF85.939999999999998
aF85.640000000000001
aF85.420000000000002
aF85.400000000000006
aF84.900000000000006
aF84.980000000000004
aF84.659999999999997
aF85.519999999999996
aF84.019999999999996
aF84
aF85.060000000000002
aF85.359999999999999
aF85.420000000000002
aF85.459999999999994
aF85.200000000000003
aF84.959999999999994
aF85.799999999999997
aF85.760000000000005
aF86.480000000000004
aF86.480000000000004
aF85.480000000000004
aF84.760000000000005
aF86.239999999999995
aF85.319999999999993
aF85.939999999999998
aF86.060000000000002
aF86.780000000000001
aF86.920000000000002
aF86.379999999999995
aF85.780000000000001
aF85.939999999999998
aF86.700000000000003
aF86.620000000000005
aF86.739999999999995
aF87.079999999999998
aF86.260000000000005
aF86.040000000000006
aF85.280000000000001
aF86.439999999999998
aF85.980000000000004
aF85.879999999999995
aF85.620000000000005
aF85.819999999999993
aF86.319999999999993
aF86.260000000000005
aF86.640000000000001
aF86.659999999999997
aF85.939999999999998
aF85.840000000000003
aF86.079999999999998
aF86.239999999999995
aF85.739999999999995
aF86.819999999999993
aF86.040000000000006
aF86.480000000000004
aF86.159999999999997
aF86.879999999999995
aF87.340000000000003
aF87.340000000000003
aF86.439999999999998
aF86.920000000000002
aF87.439999999999998
aF87.260000000000005
aF86.900000000000006
aF86.719999999999999
aF86.299999999999997
aF86.159999999999997
aF86.799999999999997
aF86.680000000000007
aF87.519999999999996
aF87.239999999999995
aF86.920000000000002
aF86.819999999999993
aF87.420000000000002
aF87.560000000000002
aF86.579999999999998
aF86.780000000000001
aF87.239999999999995
aF86.739999999999995
aF87.400000000000006
aF86.739999999999995
aF87.099999999999994
aF86.340000000000003
aF87.519999999999996
aF87.980000000000004
aF87.019999999999996
aF87.280000000000001
aF86.540000000000006
aF87.239999999999995
aF87.640000000000001
aF87.439999999999998
aF87.099999999999994
aF85.579999999999998
aF86.659999999999997
aF86.599999999999994
aF86.980000000000004
aF86.959999999999994
aF86.459999999999994
aF86.280000000000001
aF87
aF86.120000000000005
aF87.239999999999995
aF86.540000000000006
aF86.700000000000003
aF87.359999999999999
aF86.400000000000006
aF87.260000000000005
aF87.879999999999995
aF87.540000000000006
aF87.239999999999995
aF87.299999999999997
aF87.560000000000002
aF87.439999999999998
aF87.560000000000002
aF87.379999999999995
aF87.060000000000002
aF86.680000000000007
aF88
aF87.760000000000005
aF87.659999999999997
aF88.180000000000007
aF88.180000000000007
aF87.900000000000006
aF87.519999999999996
aF86.579999999999998
aF87
aF85.780000000000001
aF87.359999999999999
aF87.939999999999998
aF87.760000000000005
aF87.180000000000007
aF87.439999999999998
aF87.599999999999994
aF87.400000000000006
aF87.659999999999997
aF86.780000000000001
aF88.019999999999996
aF87.280000000000001
aF88.180000000000007
aF88.400000000000006
aF88.280000000000001
aF88.519999999999996
aF86.819999999999993
aF86.840000000000003
aF88.040000000000006
aF87.239999999999995
aF87.519999999999996
aF87.760000000000005
aF86.379999999999995
aF87.260000000000005
aF86.819999999999993
aF87.980000000000004
aF86.640000000000001
aF87.599999999999994
aF85.799999999999997
aF85.239999999999995
aF86.180000000000007
aF85.359999999999999
aF85.299999999999997
aF85.819999999999993
aF87.340000000000003
aF87.140000000000001
aF87.540000000000006
aF87.480000000000004
aF87.5
aF87.299999999999997
aF86.980000000000004
aF86.900000000000006
aF87.540000000000006
aF86.180000000000007
aF85.959999999999994
aF87.620000000000005
aF86.439999999999998
aF86.859999999999999
aF86.739999999999995
aF86.420000000000002
aF86.5
aF85.280000000000001
aF86.299999999999997
aF86.120000000000005
aF86.560000000000002
aF86.359999999999999
aF86.799999999999997
aF86.180000000000007
aF86.780000000000001
aF86.560000000000002
aF85.379999999999995
aF86.659999999999997
aF86.959999999999994
aF87.379999999999995
aF86.799999999999997
aF87.599999999999994
aF87.219999999999999
aF87.079999999999998
aF86.579999999999998
aF86.900000000000006
aF87.680000000000007
aF86.480000000000004
aF86.579999999999998
aF86.780000000000001
aF87
aF87.260000000000005
aF87.859999999999999
aF87.239999999999995
aF87.079999999999998
aF87.159999999999997
aF87.519999999999996
aF86.879999999999995
aF87.180000000000007
aF87.280000000000001
aF87.260000000000005
aF87.640000000000001
aF87.400000000000006
aF88.019999999999996
aF87.980000000000004
aF87.719999999999999
aF88.439999999999998
aF88.040000000000006
aF87.980000000000004
aF87.5
aF87.819999999999993
aF87.540000000000006
aF87.599999999999994
aF87.420000000000002
aF86.900000000000006
aF87.700000000000003
aF87.079999999999998
aF87.120000000000005
aF87.319999999999993
aF87.780000000000001
aF87.840000000000003
aF86.939999999999998
aF87.159999999999997
aF87.340000000000003
aF86.879999999999995
aF86.939999999999998
aF87.140000000000001
aF86.900000000000006
aF87.060000000000002
aF87.540000000000006
aF87.819999999999993
aF88.420000000000002
aF87.439999999999998
aF87.819999999999993
aF86.939999999999998
aF86.680000000000007
aF86.959999999999994
aF86.120000000000005
aF87.040000000000006
aF87.319999999999993
aF87.659999999999997
aF87.400000000000006
aF88.200000000000003
aF87.340000000000003
aF84.340000000000003
aF87.459999999999994
aF86.299999999999997
aF86.480000000000004
aF87.840000000000003
aF87.640000000000001
aF88.079999999999998
aF88.120000000000005
aF88.359999999999999
aF87.019999999999996
aF88.180000000000007
aF88.280000000000001
aF88.260000000000005
aF88.420000000000002
aF88.260000000000005
aF87.700000000000003
aF86.879999999999995
aF88.099999999999994
aF87.980000000000004
aF88.700000000000003
aF89.219999999999999
aF89.180000000000007
aF88.739999999999995
aF88.140000000000001
aF88.540000000000006
aF88.439999999999998
aF87.540000000000006
aF87.379999999999995
aF88.340000000000003
aF88.239999999999995
aF86.719999999999999
aF87.760000000000005
aF87.379999999999995
aF87.840000000000003
aF88.219999999999999
aF88.400000000000006
aF88.040000000000006
aF87.739999999999995
aF88.079999999999998
aF87.840000000000003
aF88.519999999999996
aF89.340000000000003
aF89.519999999999996
aF88.819999999999993
aF88.959999999999994
aF89.159999999999997
aF89.219999999999999
aF88.840000000000003
aF88.980000000000004
aF88.819999999999993
aF88.959999999999994
aF88.439999999999998
aF87.900000000000006
aF88.140000000000001
aF87.719999999999999
aF88.659999999999997
aF89.019999999999996
aF88.560000000000002
aF89.060000000000002
aF89.060000000000002
aF88.340000000000003
aF88.340000000000003
aF87.280000000000001
aF88.760000000000005
aF88.620000000000005
aF88.739999999999995
aF88.939999999999998
aF87.900000000000006
aF88.239999999999995
aF89.439999999999998
aF88.719999999999999
aF88.620000000000005
aF88.299999999999997
aF88.459999999999994
aF88.799999999999997
aF88.640000000000001
aF88.579999999999998
aF88.180000000000007
aF89.060000000000002
aF89.540000000000006
aF89.519999999999996
aF88.700000000000003
aF87.900000000000006
aF88.5
aF88.420000000000002
aF88.420000000000002
aF88.400000000000006
aF86.959999999999994
aF87.319999999999993
aF87.739999999999995
aF88.379999999999995
aF88.739999999999995
aF89.379999999999995
aF88.900000000000006
aF88.560000000000002
aF88.799999999999997
aF88.319999999999993
aF87.599999999999994
aF88.439999999999998
aF88.359999999999999
aF88.159999999999997
aF88.959999999999994
aF88.340000000000003
aF88.939999999999998
aF89.719999999999999
aF89.019999999999996
aF89.420000000000002
aF89.799999999999997
aF89.540000000000006
aF86.900000000000006
aF88.579999999999998
aF88.760000000000005
aF88.700000000000003
aF89.200000000000003
aF88.739999999999995
aF89.079999999999998
aF89.040000000000006
aF89.439999999999998
aF89.519999999999996
aF89.299999999999997
aF88.760000000000005
aF88.939999999999998
aF89.140000000000001
aF88.959999999999994
aF88.780000000000001
aF89
aF88.280000000000001
aF89.659999999999997
aF89.340000000000003
aF88.780000000000001
aF88.760000000000005
aF89.620000000000005
aF89.5
aF89.659999999999997
aF88.280000000000001
aF88.400000000000006
aF89.200000000000003
aF89.079999999999998
aF89.159999999999997
aF89.359999999999999
aF89.280000000000001
aF89.099999999999994
aF89.719999999999999
aF89.799999999999997
aF88.400000000000006
aF89.120000000000005
aF89.400000000000006
aF89.5
aF90.120000000000005
aF89.480000000000004
aF89.920000000000002
aF90.140000000000001
aF88.599999999999994
aF89.760000000000005
aF89.620000000000005
aF89.060000000000002
aF89.299999999999997
aF89.680000000000007
aF89.640000000000001
aF89.819999999999993
aF89.140000000000001
aF89.299999999999997
aF89.159999999999997
aF89.260000000000005
aF89.159999999999997
aF89.799999999999997
aF89.920000000000002
aF89.200000000000003
aF89.459999999999994
aF90.040000000000006
aF90.140000000000001
aF89.939999999999998
aF90.099999999999994
aF89.719999999999999
aF89.840000000000003
aF90.019999999999996
aF90.280000000000001
aF89.719999999999999
aF89.840000000000003
aF90.180000000000007
a.